
Brazo.elf:     file format elf32-avr

Sections:
Idx Name          Size      VMA       LMA       File off  Algn
  0 .data         00000002  00800100  00001e60  00001ef4  2**0
                  CONTENTS, ALLOC, LOAD, DATA
  1 .text         00001e60  00000000  00000000  00000094  2**1
                  CONTENTS, ALLOC, LOAD, READONLY, CODE
  2 .bss          0000002b  00800102  00800102  00001ef6  2**0
                  ALLOC
  3 .comment      00000030  00000000  00000000  00001ef6  2**0
                  CONTENTS, READONLY
  4 .note.gnu.avr.deviceinfo 00000040  00000000  00000000  00001f28  2**2
                  CONTENTS, READONLY
  5 .debug_aranges 00000110  00000000  00000000  00001f68  2**0
                  CONTENTS, READONLY, DEBUGGING
  6 .debug_info   00002fb4  00000000  00000000  00002078  2**0
                  CONTENTS, READONLY, DEBUGGING
  7 .debug_abbrev 00000a23  00000000  00000000  0000502c  2**0
                  CONTENTS, READONLY, DEBUGGING
  8 .debug_line   00001c7c  00000000  00000000  00005a4f  2**0
                  CONTENTS, READONLY, DEBUGGING
  9 .debug_frame  000001d8  00000000  00000000  000076cc  2**2
                  CONTENTS, READONLY, DEBUGGING
 10 .debug_str    000005ec  00000000  00000000  000078a4  2**0
                  CONTENTS, READONLY, DEBUGGING
 11 .debug_loc    000013a1  00000000  00000000  00007e90  2**0
                  CONTENTS, READONLY, DEBUGGING
 12 .debug_ranges 000000b0  00000000  00000000  00009231  2**0
                  CONTENTS, READONLY, DEBUGGING

Disassembly of section .text:

00000000 <__vectors>:
       0:	0c 94 30 01 	jmp	0x260	; 0x260 <__ctors_end>
       4:	0c 94 4d 01 	jmp	0x29a	; 0x29a <__bad_interrupt>
       8:	0c 94 4d 01 	jmp	0x29a	; 0x29a <__bad_interrupt>
       c:	0c 94 4d 01 	jmp	0x29a	; 0x29a <__bad_interrupt>
      10:	0c 94 4d 01 	jmp	0x29a	; 0x29a <__bad_interrupt>
      14:	0c 94 4d 01 	jmp	0x29a	; 0x29a <__bad_interrupt>
      18:	0c 94 4d 01 	jmp	0x29a	; 0x29a <__bad_interrupt>
      1c:	0c 94 4d 01 	jmp	0x29a	; 0x29a <__bad_interrupt>
      20:	0c 94 4d 01 	jmp	0x29a	; 0x29a <__bad_interrupt>
      24:	0c 94 4d 01 	jmp	0x29a	; 0x29a <__bad_interrupt>
      28:	0c 94 4d 01 	jmp	0x29a	; 0x29a <__bad_interrupt>
      2c:	0c 94 4d 01 	jmp	0x29a	; 0x29a <__bad_interrupt>
      30:	0c 94 4d 01 	jmp	0x29a	; 0x29a <__bad_interrupt>
      34:	0c 94 4d 01 	jmp	0x29a	; 0x29a <__bad_interrupt>
      38:	0c 94 4d 01 	jmp	0x29a	; 0x29a <__bad_interrupt>
      3c:	0c 94 4d 01 	jmp	0x29a	; 0x29a <__bad_interrupt>
      40:	0c 94 4d 01 	jmp	0x29a	; 0x29a <__bad_interrupt>
      44:	0c 94 4d 01 	jmp	0x29a	; 0x29a <__bad_interrupt>
      48:	0c 94 f8 0d 	jmp	0x1bf0	; 0x1bf0 <__vector_18>
      4c:	0c 94 4d 01 	jmp	0x29a	; 0x29a <__bad_interrupt>
      50:	0c 94 4d 01 	jmp	0x29a	; 0x29a <__bad_interrupt>
      54:	0c 94 4a 0d 	jmp	0x1a94	; 0x1a94 <__vector_21>
      58:	0c 94 4d 01 	jmp	0x29a	; 0x29a <__bad_interrupt>
      5c:	0c 94 4d 01 	jmp	0x29a	; 0x29a <__bad_interrupt>
      60:	0c 94 4d 01 	jmp	0x29a	; 0x29a <__bad_interrupt>
      64:	0c 94 4d 01 	jmp	0x29a	; 0x29a <__bad_interrupt>
      68:	7e 0a       	sbc	r7, r30
      6a:	84 0a       	sbc	r8, r20
      6c:	8a 0a       	sbc	r8, r26
      6e:	90 0a       	sbc	r9, r16
      70:	96 0a       	sbc	r9, r22
      72:	9c 0a       	sbc	r9, r28
      74:	a2 0a       	sbc	r10, r18
      76:	a8 0a       	sbc	r10, r24
      78:	ae 0a       	sbc	r10, r30
      7a:	b4 0a       	sbc	r11, r20
      7c:	1f 0b       	sbc	r17, r31
      7e:	1f 0b       	sbc	r17, r31
      80:	1f 0b       	sbc	r17, r31
      82:	1f 0b       	sbc	r17, r31
      84:	1f 0b       	sbc	r17, r31
      86:	1f 0b       	sbc	r17, r31
      88:	1f 0b       	sbc	r17, r31
      8a:	ba 0a       	sbc	r11, r26
      8c:	c0 0a       	sbc	r12, r16
      8e:	c6 0a       	sbc	r12, r22
      90:	cc 0a       	sbc	r12, r28
      92:	1f 0b       	sbc	r17, r31
      94:	d8 0a       	sbc	r13, r24
      96:	de 0a       	sbc	r13, r30
      98:	e4 0a       	sbc	r14, r20
      9a:	ea 0a       	sbc	r14, r26
      9c:	f0 0a       	sbc	r15, r16
      9e:	f6 0a       	sbc	r15, r22
      a0:	fc 0a       	sbc	r15, r28
      a2:	02 0b       	sbc	r16, r18
      a4:	08 0b       	sbc	r16, r24
      a6:	0e 0b       	sbc	r16, r30
      a8:	14 0b       	sbc	r17, r20
      aa:	1f 0b       	sbc	r17, r31
      ac:	1f 0b       	sbc	r17, r31
      ae:	1f 0b       	sbc	r17, r31
      b0:	1f 0b       	sbc	r17, r31
      b2:	1f 0b       	sbc	r17, r31
      b4:	1f 0b       	sbc	r17, r31
      b6:	1f 0b       	sbc	r17, r31
      b8:	1f 0b       	sbc	r17, r31
      ba:	1f 0b       	sbc	r17, r31
      bc:	1f 0b       	sbc	r17, r31
      be:	1f 0b       	sbc	r17, r31
      c0:	1f 0b       	sbc	r17, r31
      c2:	1f 0b       	sbc	r17, r31
      c4:	1f 0b       	sbc	r17, r31
      c6:	1f 0b       	sbc	r17, r31
      c8:	1f 0b       	sbc	r17, r31
      ca:	1f 0b       	sbc	r17, r31
      cc:	1f 0b       	sbc	r17, r31
      ce:	1f 0b       	sbc	r17, r31
      d0:	1f 0b       	sbc	r17, r31
      d2:	d2 0a       	sbc	r13, r18
      d4:	1f 0b       	sbc	r17, r31
      d6:	1f 0b       	sbc	r17, r31
      d8:	1f 0b       	sbc	r17, r31
      da:	1f 0b       	sbc	r17, r31
      dc:	1f 0b       	sbc	r17, r31
      de:	1f 0b       	sbc	r17, r31
      e0:	1f 0b       	sbc	r17, r31
      e2:	1f 0b       	sbc	r17, r31
      e4:	1f 0b       	sbc	r17, r31
      e6:	1f 0b       	sbc	r17, r31
      e8:	1f 0b       	sbc	r17, r31
      ea:	1a 0b       	sbc	r17, r26
      ec:	34 0b       	sbc	r19, r20
      ee:	3a 0b       	sbc	r19, r26
      f0:	40 0b       	sbc	r20, r16
      f2:	46 0b       	sbc	r20, r22
      f4:	4c 0b       	sbc	r20, r28
      f6:	52 0b       	sbc	r21, r18
      f8:	58 0b       	sbc	r21, r24
      fa:	5e 0b       	sbc	r21, r30
      fc:	64 0b       	sbc	r22, r20
      fe:	6a 0b       	sbc	r22, r26
     100:	d5 0b       	sbc	r29, r21
     102:	d5 0b       	sbc	r29, r21
     104:	d5 0b       	sbc	r29, r21
     106:	d5 0b       	sbc	r29, r21
     108:	d5 0b       	sbc	r29, r21
     10a:	d5 0b       	sbc	r29, r21
     10c:	d5 0b       	sbc	r29, r21
     10e:	70 0b       	sbc	r23, r16
     110:	76 0b       	sbc	r23, r22
     112:	7c 0b       	sbc	r23, r28
     114:	82 0b       	sbc	r24, r18
     116:	d5 0b       	sbc	r29, r21
     118:	8e 0b       	sbc	r24, r30
     11a:	94 0b       	sbc	r25, r20
     11c:	9a 0b       	sbc	r25, r26
     11e:	a0 0b       	sbc	r26, r16
     120:	a6 0b       	sbc	r26, r22
     122:	ac 0b       	sbc	r26, r28
     124:	b2 0b       	sbc	r27, r18
     126:	b8 0b       	sbc	r27, r24
     128:	be 0b       	sbc	r27, r30
     12a:	c4 0b       	sbc	r28, r20
     12c:	ca 0b       	sbc	r28, r26
     12e:	d5 0b       	sbc	r29, r21
     130:	d5 0b       	sbc	r29, r21
     132:	d5 0b       	sbc	r29, r21
     134:	d5 0b       	sbc	r29, r21
     136:	d5 0b       	sbc	r29, r21
     138:	d5 0b       	sbc	r29, r21
     13a:	d5 0b       	sbc	r29, r21
     13c:	d5 0b       	sbc	r29, r21
     13e:	d5 0b       	sbc	r29, r21
     140:	d5 0b       	sbc	r29, r21
     142:	d5 0b       	sbc	r29, r21
     144:	d5 0b       	sbc	r29, r21
     146:	d5 0b       	sbc	r29, r21
     148:	d5 0b       	sbc	r29, r21
     14a:	d5 0b       	sbc	r29, r21
     14c:	d5 0b       	sbc	r29, r21
     14e:	d5 0b       	sbc	r29, r21
     150:	d5 0b       	sbc	r29, r21
     152:	d5 0b       	sbc	r29, r21
     154:	d5 0b       	sbc	r29, r21
     156:	88 0b       	sbc	r24, r24
     158:	d5 0b       	sbc	r29, r21
     15a:	d5 0b       	sbc	r29, r21
     15c:	d5 0b       	sbc	r29, r21
     15e:	d5 0b       	sbc	r29, r21
     160:	d5 0b       	sbc	r29, r21
     162:	d5 0b       	sbc	r29, r21
     164:	d5 0b       	sbc	r29, r21
     166:	d5 0b       	sbc	r29, r21
     168:	d5 0b       	sbc	r29, r21
     16a:	d5 0b       	sbc	r29, r21
     16c:	d5 0b       	sbc	r29, r21
     16e:	d0 0b       	sbc	r29, r16
     170:	ea 0b       	sbc	r30, r26
     172:	f0 0b       	sbc	r31, r16
     174:	f6 0b       	sbc	r31, r22
     176:	fc 0b       	sbc	r31, r28
     178:	02 0c       	add	r0, r2
     17a:	08 0c       	add	r0, r8
     17c:	0e 0c       	add	r0, r14
     17e:	14 0c       	add	r1, r4
     180:	1a 0c       	add	r1, r10
     182:	20 0c       	add	r2, r0
     184:	7f 0c       	add	r7, r15
     186:	7f 0c       	add	r7, r15
     188:	7f 0c       	add	r7, r15
     18a:	7f 0c       	add	r7, r15
     18c:	7f 0c       	add	r7, r15
     18e:	7f 0c       	add	r7, r15
     190:	7f 0c       	add	r7, r15
     192:	26 0c       	add	r2, r6
     194:	2c 0c       	add	r2, r12
     196:	32 0c       	add	r3, r2
     198:	38 0c       	add	r3, r8
     19a:	7f 0c       	add	r7, r15
     19c:	44 0c       	add	r4, r4
     19e:	4a 0c       	add	r4, r10
     1a0:	50 0c       	add	r5, r0
     1a2:	56 0c       	add	r5, r6
     1a4:	5c 0c       	add	r5, r12
     1a6:	62 0c       	add	r6, r2
     1a8:	68 0c       	add	r6, r8
     1aa:	6e 0c       	add	r6, r14
     1ac:	74 0c       	add	r7, r4
     1ae:	7a 0c       	add	r7, r10
     1b0:	7f 0c       	add	r7, r15
     1b2:	7f 0c       	add	r7, r15
     1b4:	7f 0c       	add	r7, r15
     1b6:	7f 0c       	add	r7, r15
     1b8:	7f 0c       	add	r7, r15
     1ba:	7f 0c       	add	r7, r15
     1bc:	7f 0c       	add	r7, r15
     1be:	7f 0c       	add	r7, r15
     1c0:	7f 0c       	add	r7, r15
     1c2:	7f 0c       	add	r7, r15
     1c4:	7f 0c       	add	r7, r15
     1c6:	7f 0c       	add	r7, r15
     1c8:	7f 0c       	add	r7, r15
     1ca:	7f 0c       	add	r7, r15
     1cc:	7f 0c       	add	r7, r15
     1ce:	7f 0c       	add	r7, r15
     1d0:	7f 0c       	add	r7, r15
     1d2:	7f 0c       	add	r7, r15
     1d4:	7f 0c       	add	r7, r15
     1d6:	7f 0c       	add	r7, r15
     1d8:	7f 0c       	add	r7, r15
     1da:	3e 0c       	add	r3, r14
     1dc:	94 0c       	add	r9, r4
     1de:	9a 0c       	add	r9, r10
     1e0:	a0 0c       	add	r10, r0
     1e2:	a6 0c       	add	r10, r6
     1e4:	ac 0c       	add	r10, r12
     1e6:	b2 0c       	add	r11, r2
     1e8:	b8 0c       	add	r11, r8
     1ea:	be 0c       	add	r11, r14
     1ec:	c4 0c       	add	r12, r4
     1ee:	ca 0c       	add	r12, r10
     1f0:	35 0d       	add	r19, r5
     1f2:	35 0d       	add	r19, r5
     1f4:	35 0d       	add	r19, r5
     1f6:	35 0d       	add	r19, r5
     1f8:	35 0d       	add	r19, r5
     1fa:	35 0d       	add	r19, r5
     1fc:	35 0d       	add	r19, r5
     1fe:	d0 0c       	add	r13, r0
     200:	d6 0c       	add	r13, r6
     202:	dc 0c       	add	r13, r12
     204:	e2 0c       	add	r14, r2
     206:	35 0d       	add	r19, r5
     208:	ee 0c       	add	r14, r14
     20a:	f4 0c       	add	r15, r4
     20c:	fa 0c       	add	r15, r10
     20e:	00 0d       	add	r16, r0
     210:	06 0d       	add	r16, r6
     212:	0c 0d       	add	r16, r12
     214:	12 0d       	add	r17, r2
     216:	18 0d       	add	r17, r8
     218:	1e 0d       	add	r17, r14
     21a:	24 0d       	add	r18, r4
     21c:	2a 0d       	add	r18, r10
     21e:	35 0d       	add	r19, r5
     220:	35 0d       	add	r19, r5
     222:	35 0d       	add	r19, r5
     224:	35 0d       	add	r19, r5
     226:	35 0d       	add	r19, r5
     228:	35 0d       	add	r19, r5
     22a:	35 0d       	add	r19, r5
     22c:	35 0d       	add	r19, r5
     22e:	35 0d       	add	r19, r5
     230:	35 0d       	add	r19, r5
     232:	35 0d       	add	r19, r5
     234:	35 0d       	add	r19, r5
     236:	35 0d       	add	r19, r5
     238:	35 0d       	add	r19, r5
     23a:	35 0d       	add	r19, r5
     23c:	35 0d       	add	r19, r5
     23e:	35 0d       	add	r19, r5
     240:	35 0d       	add	r19, r5
     242:	35 0d       	add	r19, r5
     244:	35 0d       	add	r19, r5
     246:	e8 0c       	add	r14, r8
     248:	35 0d       	add	r19, r5
     24a:	35 0d       	add	r19, r5
     24c:	35 0d       	add	r19, r5
     24e:	35 0d       	add	r19, r5
     250:	35 0d       	add	r19, r5
     252:	35 0d       	add	r19, r5
     254:	35 0d       	add	r19, r5
     256:	35 0d       	add	r19, r5
     258:	35 0d       	add	r19, r5
     25a:	35 0d       	add	r19, r5
     25c:	35 0d       	add	r19, r5
     25e:	30 0d       	add	r19, r0

00000260 <__ctors_end>:
     260:	11 24       	eor	r1, r1
     262:	1f be       	out	0x3f, r1	; 63
     264:	cf ef       	ldi	r28, 0xFF	; 255
     266:	d8 e0       	ldi	r29, 0x08	; 8
     268:	de bf       	out	0x3e, r29	; 62
     26a:	cd bf       	out	0x3d, r28	; 61

0000026c <__do_copy_data>:
     26c:	11 e0       	ldi	r17, 0x01	; 1
     26e:	a0 e0       	ldi	r26, 0x00	; 0
     270:	b1 e0       	ldi	r27, 0x01	; 1
     272:	e0 e6       	ldi	r30, 0x60	; 96
     274:	fe e1       	ldi	r31, 0x1E	; 30
     276:	02 c0       	rjmp	.+4      	; 0x27c <__do_copy_data+0x10>
     278:	05 90       	lpm	r0, Z+
     27a:	0d 92       	st	X+, r0
     27c:	a2 30       	cpi	r26, 0x02	; 2
     27e:	b1 07       	cpc	r27, r17
     280:	d9 f7       	brne	.-10     	; 0x278 <__do_copy_data+0xc>

00000282 <__do_clear_bss>:
     282:	21 e0       	ldi	r18, 0x01	; 1
     284:	a2 e0       	ldi	r26, 0x02	; 2
     286:	b1 e0       	ldi	r27, 0x01	; 1
     288:	01 c0       	rjmp	.+2      	; 0x28c <.do_clear_bss_start>

0000028a <.do_clear_bss_loop>:
     28a:	1d 92       	st	X+, r1

0000028c <.do_clear_bss_start>:
     28c:	ad 32       	cpi	r26, 0x2D	; 45
     28e:	b2 07       	cpc	r27, r18
     290:	e1 f7       	brne	.-8      	; 0x28a <.do_clear_bss_loop>
     292:	0e 94 b7 01 	call	0x36e	; 0x36e <main>
     296:	0c 94 2e 0f 	jmp	0x1e5c	; 0x1e5c <_exit>

0000029a <__bad_interrupt>:
     29a:	0c 94 00 00 	jmp	0	; 0x0 <__vectors>

0000029e <initADC>:
#include "ADC.h"

void initADC(){
	

	   ADMUX &= ~((1<<MUX0)|(1<<MUX1)|(1<<MUX2));
     29e:	ec e7       	ldi	r30, 0x7C	; 124
     2a0:	f0 e0       	ldi	r31, 0x00	; 0
     2a2:	80 81       	ld	r24, Z
     2a4:	88 7f       	andi	r24, 0xF8	; 248
     2a6:	80 83       	st	Z, r24
	   DIDR0 |= (1 <<ADC0D);	//desabilitar el A0 como digital
     2a8:	ae e7       	ldi	r26, 0x7E	; 126
     2aa:	b0 e0       	ldi	r27, 0x00	; 0
     2ac:	8c 91       	ld	r24, X
     2ae:	81 60       	ori	r24, 0x01	; 1
     2b0:	8c 93       	st	X, r24
	   DIDR0 |= (1<<ADC1D);     //desabilitar el A1 como digital
     2b2:	8c 91       	ld	r24, X
     2b4:	82 60       	ori	r24, 0x02	; 2
     2b6:	8c 93       	st	X, r24
	   DIDR0 |= (1<<ADC2D);     //desabilitar el A2 como digital
     2b8:	8c 91       	ld	r24, X
     2ba:	84 60       	ori	r24, 0x04	; 4
     2bc:	8c 93       	st	X, r24
	   DIDR0 |= (1<<ADC3D);     //desabilitar el A3 como digital
     2be:	8c 91       	ld	r24, X
     2c0:	88 60       	ori	r24, 0x08	; 8
     2c2:	8c 93       	st	X, r24

		//JUSTIFICACION IZQUIERDA
		ADMUX |= (1<<ADLAR);
     2c4:	80 81       	ld	r24, Z
     2c6:	80 62       	ori	r24, 0x20	; 32
     2c8:	80 83       	st	Z, r24
		//REFERENCIA INTERNA
		ADMUX |= (1<<REFS0);
     2ca:	80 81       	ld	r24, Z
     2cc:	80 64       	ori	r24, 0x40	; 64
     2ce:	80 83       	st	Z, r24
		ADMUX &= ~(1 << REFS1);
     2d0:	80 81       	ld	r24, Z
     2d2:	8f 77       	andi	r24, 0x7F	; 127
     2d4:	80 83       	st	Z, r24
		// HABILITAR INTERRUPCION
		ADCSRA |= (1<<ADIE);
     2d6:	ea e7       	ldi	r30, 0x7A	; 122
     2d8:	f0 e0       	ldi	r31, 0x00	; 0
     2da:	80 81       	ld	r24, Z
     2dc:	88 60       	ori	r24, 0x08	; 8
     2de:	80 83       	st	Z, r24
		//PRESCALER 128
		ADCSRA |= (1<<ADPS2)|(1<<ADPS1)|(1<<ADPS0);
     2e0:	80 81       	ld	r24, Z
     2e2:	87 60       	ori	r24, 0x07	; 7
     2e4:	80 83       	st	Z, r24
		//HABILITAR ADC
		ADCSRA |= (1<<ADEN);
     2e6:	80 81       	ld	r24, Z
     2e8:	80 68       	ori	r24, 0x80	; 128
     2ea:	80 83       	st	Z, r24
     2ec:	08 95       	ret

000002ee <EEPROM_write>:

void EEPROM_write(unsigned int uiAddress, unsigned int ucData)
{

	/* Wait for completion of previous write */
	while(EECR & (1<<EEPE))
     2ee:	f9 99       	sbic	0x1f, 1	; 31
     2f0:	fe cf       	rjmp	.-4      	; 0x2ee <EEPROM_write>
	;
	/* Set up address and Data Registers */
	EEAR = uiAddress;
     2f2:	92 bd       	out	0x22, r25	; 34
     2f4:	81 bd       	out	0x21, r24	; 33
	EEDR = ucData;
     2f6:	60 bd       	out	0x20, r22	; 32
	/* Write logical one to EEMPE */
	EECR |= (1<<EEMPE);
     2f8:	8f b3       	in	r24, 0x1f	; 31
     2fa:	84 60       	ori	r24, 0x04	; 4
     2fc:	8f bb       	out	0x1f, r24	; 31
	/* Start eeprom write by setting EEPE */
	EECR |= (1<<EEPE);
     2fe:	8f b3       	in	r24, 0x1f	; 31
     300:	82 60       	ori	r24, 0x02	; 2
     302:	8f bb       	out	0x1f, r24	; 31
     304:	08 95       	ret

00000306 <EEPROM_read>:

unsigned int EEPROM_read(unsigned int uiAddress)
{

	/* Wait for completion of previous write */
	while(EECR & (1<<EEPE))
     306:	f9 99       	sbic	0x1f, 1	; 31
     308:	fe cf       	rjmp	.-4      	; 0x306 <EEPROM_read>
	;
	/* Set up address register */
	EEAR = uiAddress;
     30a:	92 bd       	out	0x22, r25	; 34
     30c:	81 bd       	out	0x21, r24	; 33
	/* Start eeprom read by writing EERE */
	EECR |= (1<<EERE);
     30e:	8f b3       	in	r24, 0x1f	; 31
     310:	81 60       	ori	r24, 0x01	; 1
     312:	8f bb       	out	0x1f, r24	; 31
	/* Return data from Data Register */
	
	return EEDR;
     314:	80 b5       	in	r24, 0x20	; 32
     316:	90 e0       	ldi	r25, 0x00	; 0
     318:	08 95       	ret

0000031a <setup>:
uint8_t pos4[4]={};    //Guardar posicion 4 de servomotores en EEPROM



void setup(void){
	cli();  //Apagar interrupciones
     31a:	f8 94       	cli
	
	DDRB |= (1 << PORTB2) | (1 << PORTB1) | (1 << PORTB3); //PB1, PB2, PB3 como salida de servos
     31c:	84 b1       	in	r24, 0x04	; 4
     31e:	8e 60       	ori	r24, 0x0E	; 14
     320:	84 b9       	out	0x04, r24	; 4
	DDRC =0;  //Puerto C como entrada
     322:	17 b8       	out	0x07, r1	; 7
	DDRD |= (1 << DDD3) | (1 << DDD4) | (1 << DDD5) | (1 << DDD6);   //PD3 como salida de servo, PD4 - PD6 salida de LEDS
     324:	8a b1       	in	r24, 0x0a	; 10
     326:	88 67       	ori	r24, 0x78	; 120
     328:	8a b9       	out	0x0a, r24	; 10
	DDRB &= 0b00001110;   //Activar entrada de pulsador 1 de estado, 2 de guardar/confirmar. 
     32a:	84 b1       	in	r24, 0x04	; 4
     32c:	8e 70       	andi	r24, 0x0E	; 14
     32e:	84 b9       	out	0x04, r24	; 4
	PORTB = (1 << PORTB4) | (1 << PORTB0);  //Activar PULLUP 
     330:	81 e1       	ldi	r24, 0x11	; 17
     332:	85 b9       	out	0x05, r24	; 5
	DDRD = 0b01111000;
     334:	88 e7       	ldi	r24, 0x78	; 120
     336:	8a b9       	out	0x0a, r24	; 10
	
	initFastPWM1(8);  //Iniciar funcion de FASTPWM en timer1
     338:	88 e0       	ldi	r24, 0x08	; 8
     33a:	90 e0       	ldi	r25, 0x00	; 0
     33c:	0e 94 2f 0e 	call	0x1c5e	; 0x1c5e <initFastPWM1>
	channel(channelB, modo);
     340:	60 e0       	ldi	r22, 0x00	; 0
     342:	82 e0       	ldi	r24, 0x02	; 2
     344:	0e 94 0e 0e 	call	0x1c1c	; 0x1c1c <channel>
	channel(channelA, modo);
     348:	60 e0       	ldi	r22, 0x00	; 0
     34a:	81 e0       	ldi	r24, 0x01	; 1
     34c:	0e 94 0e 0e 	call	0x1c1c	; 0x1c1c <channel>
	topValue(29999);   //Valor alto de desbordamiento para 1 a 2 ms que se necesita de servo
     350:	8f e2       	ldi	r24, 0x2F	; 47
     352:	95 e7       	ldi	r25, 0x75	; 117
     354:	0e 94 56 0e 	call	0x1cac	; 0x1cac <topValue>
	initADC();   //Iniciar la funcion de ADC
     358:	0e 94 4f 01 	call	0x29e	; 0x29e <initADC>
	initFastPWM2();  //Iniciar funcion de FASTPWM en timer2
     35c:	0e 94 96 0e 	call	0x1d2c	; 0x1d2c <initFastPWM2>
	initUART9600();
     360:	0e 94 e5 0e 	call	0x1dca	; 0x1dca <initUART9600>
	PORTD |=  (1 << DDD4);
     364:	8b b1       	in	r24, 0x0b	; 11
     366:	80 61       	ori	r24, 0x10	; 16
     368:	8b b9       	out	0x0b, r24	; 11
	
    sei();   //Activar interrupciones
     36a:	78 94       	sei
     36c:	08 95       	ret

0000036e <main>:
}


int main(void)
{
	setup();
     36e:	0e 94 8d 01 	call	0x31a	; 0x31a <setup>
	while (1)
	{                                //Cambiar estado por medio de Adafruit 
		if (receivedChar == 'Q'){
     372:	80 91 02 01 	lds	r24, 0x0102	; 0x800102 <__data_end>
     376:	81 35       	cpi	r24, 0x51	; 81
     378:	79 f4       	brne	.+30     	; 0x398 <main+0x2a>
			estado = 0;
     37a:	10 92 1e 01 	sts	0x011E, r1	; 0x80011e <estado+0x1>
     37e:	10 92 1d 01 	sts	0x011D, r1	; 0x80011d <estado>
			activa2 = 0;
     382:	10 92 20 01 	sts	0x0120, r1	; 0x800120 <activa2+0x1>
     386:	10 92 1f 01 	sts	0x011F, r1	; 0x80011f <activa2>
			samtf = 0;
     38a:	10 92 1a 01 	sts	0x011A, r1	; 0x80011a <samtf+0x1>
     38e:	10 92 19 01 	sts	0x0119, r1	; 0x800119 <samtf>
			receivedChar = 0;
     392:	10 92 02 01 	sts	0x0102, r1	; 0x800102 <__data_end>
     396:	31 c0       	rjmp	.+98     	; 0x3fa <main+0x8c>
		}
		else if (receivedChar == 'W'){
     398:	80 91 02 01 	lds	r24, 0x0102	; 0x800102 <__data_end>
     39c:	87 35       	cpi	r24, 0x57	; 87
     39e:	89 f4       	brne	.+34     	; 0x3c2 <main+0x54>
			estado = 1;
     3a0:	81 e0       	ldi	r24, 0x01	; 1
     3a2:	90 e0       	ldi	r25, 0x00	; 0
     3a4:	90 93 1e 01 	sts	0x011E, r25	; 0x80011e <estado+0x1>
     3a8:	80 93 1d 01 	sts	0x011D, r24	; 0x80011d <estado>
			activa2 = 0;
     3ac:	10 92 20 01 	sts	0x0120, r1	; 0x800120 <activa2+0x1>
     3b0:	10 92 1f 01 	sts	0x011F, r1	; 0x80011f <activa2>
			samtf = 1;
     3b4:	90 93 1a 01 	sts	0x011A, r25	; 0x80011a <samtf+0x1>
     3b8:	80 93 19 01 	sts	0x0119, r24	; 0x800119 <samtf>
			receivedChar = 0;
     3bc:	10 92 02 01 	sts	0x0102, r1	; 0x800102 <__data_end>
     3c0:	1c c0       	rjmp	.+56     	; 0x3fa <main+0x8c>
			
		}
		else if (receivedChar == 'E'){
     3c2:	80 91 02 01 	lds	r24, 0x0102	; 0x800102 <__data_end>
     3c6:	85 34       	cpi	r24, 0x45	; 69
     3c8:	c1 f4       	brne	.+48     	; 0x3fa <main+0x8c>
			estado = 2;
     3ca:	82 e0       	ldi	r24, 0x02	; 2
     3cc:	90 e0       	ldi	r25, 0x00	; 0
     3ce:	90 93 1e 01 	sts	0x011E, r25	; 0x80011e <estado+0x1>
     3d2:	80 93 1d 01 	sts	0x011D, r24	; 0x80011d <estado>
			activa2 = 1;
     3d6:	21 e0       	ldi	r18, 0x01	; 1
     3d8:	30 e0       	ldi	r19, 0x00	; 0
     3da:	30 93 20 01 	sts	0x0120, r19	; 0x800120 <activa2+0x1>
     3de:	20 93 1f 01 	sts	0x011F, r18	; 0x80011f <activa2>
			samtf = 2;
     3e2:	90 93 1a 01 	sts	0x011A, r25	; 0x80011a <samtf+0x1>
     3e6:	80 93 19 01 	sts	0x0119, r24	; 0x800119 <samtf>
			UDR0 = 'A';
     3ea:	e6 ec       	ldi	r30, 0xC6	; 198
     3ec:	f0 e0       	ldi	r31, 0x00	; 0
     3ee:	81 e4       	ldi	r24, 0x41	; 65
     3f0:	80 83       	st	Z, r24
			UDR0 = '\n';
     3f2:	8a e0       	ldi	r24, 0x0A	; 10
     3f4:	80 83       	st	Z, r24
			receivedChar = 0;
     3f6:	10 92 02 01 	sts	0x0102, r1	; 0x800102 <__data_end>
		
		}
		
		
	 if ((PINB & (1 << PINB4)) == 0)   //Cuando se presiona el boton de cambio de estado, cambiar estado
     3fa:	1c 99       	sbic	0x03, 4	; 3
     3fc:	5c c0       	rjmp	.+184    	; 0x4b6 <__EEPROM_REGION_LENGTH__+0xb6>
	#else
		//round up by default
		__ticks_dc = (uint32_t)(ceil(fabs(__tmp)));
	#endif

	__builtin_avr_delay_cycles(__ticks_dc);
     3fe:	2f ef       	ldi	r18, 0xFF	; 255
     400:	86 e7       	ldi	r24, 0x76	; 118
     402:	91 e0       	ldi	r25, 0x01	; 1
     404:	21 50       	subi	r18, 0x01	; 1
     406:	80 40       	sbci	r24, 0x00	; 0
     408:	90 40       	sbci	r25, 0x00	; 0
     40a:	e1 f7       	brne	.-8      	; 0x404 <__EEPROM_REGION_LENGTH__+0x4>
     40c:	00 c0       	rjmp	.+0      	; 0x40e <__EEPROM_REGION_LENGTH__+0xe>
     40e:	00 00       	nop
		{
			_delay_ms(30);    //antirrebote
			samtf ++;
     410:	80 91 19 01 	lds	r24, 0x0119	; 0x800119 <samtf>
     414:	90 91 1a 01 	lds	r25, 0x011A	; 0x80011a <samtf+0x1>
     418:	01 96       	adiw	r24, 0x01	; 1
     41a:	90 93 1a 01 	sts	0x011A, r25	; 0x80011a <samtf+0x1>
     41e:	80 93 19 01 	sts	0x0119, r24	; 0x800119 <samtf>
			
			if (samtf == 1)
     422:	81 30       	cpi	r24, 0x01	; 1
     424:	91 05       	cpc	r25, r1
     426:	89 f4       	brne	.+34     	; 0x44a <__EEPROM_REGION_LENGTH__+0x4a>
			{
				estado = 1;
     428:	81 e0       	ldi	r24, 0x01	; 1
     42a:	90 e0       	ldi	r25, 0x00	; 0
     42c:	90 93 1e 01 	sts	0x011E, r25	; 0x80011e <estado+0x1>
     430:	80 93 1d 01 	sts	0x011D, r24	; 0x80011d <estado>
				activa2 = 0;
     434:	10 92 20 01 	sts	0x0120, r1	; 0x800120 <activa2+0x1>
     438:	10 92 1f 01 	sts	0x011F, r1	; 0x80011f <activa2>
				 UDR0 = 'Z';
     43c:	e6 ec       	ldi	r30, 0xC6	; 198
     43e:	f0 e0       	ldi	r31, 0x00	; 0
     440:	8a e5       	ldi	r24, 0x5A	; 90
     442:	80 83       	st	Z, r24
				 UDR0 = '\n';
     444:	8a e0       	ldi	r24, 0x0A	; 10
     446:	80 83       	st	Z, r24
     448:	34 c0       	rjmp	.+104    	; 0x4b2 <__EEPROM_REGION_LENGTH__+0xb2>
			}
			
			else if (samtf == 2)
     44a:	82 30       	cpi	r24, 0x02	; 2
     44c:	91 05       	cpc	r25, r1
     44e:	99 f4       	brne	.+38     	; 0x476 <__EEPROM_REGION_LENGTH__+0x76>
			{
				estado = 2;
     450:	82 e0       	ldi	r24, 0x02	; 2
     452:	90 e0       	ldi	r25, 0x00	; 0
     454:	90 93 1e 01 	sts	0x011E, r25	; 0x80011e <estado+0x1>
     458:	80 93 1d 01 	sts	0x011D, r24	; 0x80011d <estado>
				activa2 = 1;
     45c:	81 e0       	ldi	r24, 0x01	; 1
     45e:	90 e0       	ldi	r25, 0x00	; 0
     460:	90 93 20 01 	sts	0x0120, r25	; 0x800120 <activa2+0x1>
     464:	80 93 1f 01 	sts	0x011F, r24	; 0x80011f <activa2>
				 UDR0 = 'A';
     468:	e6 ec       	ldi	r30, 0xC6	; 198
     46a:	f0 e0       	ldi	r31, 0x00	; 0
     46c:	81 e4       	ldi	r24, 0x41	; 65
     46e:	80 83       	st	Z, r24
				 UDR0 = '\n';
     470:	8a e0       	ldi	r24, 0x0A	; 10
     472:	80 83       	st	Z, r24
     474:	1e c0       	rjmp	.+60     	; 0x4b2 <__EEPROM_REGION_LENGTH__+0xb2>
			}
			
			
			else if (samtf >= 3)
     476:	03 97       	sbiw	r24, 0x03	; 3
     478:	e4 f0       	brlt	.+56     	; 0x4b2 <__EEPROM_REGION_LENGTH__+0xb2>
			{
				samtf = 0;
     47a:	10 92 1a 01 	sts	0x011A, r1	; 0x80011a <samtf+0x1>
     47e:	10 92 19 01 	sts	0x0119, r1	; 0x800119 <samtf>
				estado = 0;
     482:	10 92 1e 01 	sts	0x011E, r1	; 0x80011e <estado+0x1>
     486:	10 92 1d 01 	sts	0x011D, r1	; 0x80011d <estado>
				activa2 = 0;
     48a:	10 92 20 01 	sts	0x0120, r1	; 0x800120 <activa2+0x1>
     48e:	10 92 1f 01 	sts	0x011F, r1	; 0x80011f <activa2>
				 UDR0 = 'B';
     492:	e6 ec       	ldi	r30, 0xC6	; 198
     494:	f0 e0       	ldi	r31, 0x00	; 0
     496:	82 e4       	ldi	r24, 0x42	; 66
     498:	80 83       	st	Z, r24
				 UDR0 = '\n';
     49a:	8a e0       	ldi	r24, 0x0A	; 10
     49c:	80 83       	st	Z, r24
     49e:	09 c0       	rjmp	.+18     	; 0x4b2 <__EEPROM_REGION_LENGTH__+0xb2>
     4a0:	2f ef       	ldi	r18, 0xFF	; 255
     4a2:	86 e7       	ldi	r24, 0x76	; 118
     4a4:	91 e0       	ldi	r25, 0x01	; 1
     4a6:	21 50       	subi	r18, 0x01	; 1
     4a8:	80 40       	sbci	r24, 0x00	; 0
     4aa:	90 40       	sbci	r25, 0x00	; 0
     4ac:	e1 f7       	brne	.-8      	; 0x4a6 <__EEPROM_REGION_LENGTH__+0xa6>
     4ae:	00 c0       	rjmp	.+0      	; 0x4b0 <__EEPROM_REGION_LENGTH__+0xb0>
     4b0:	00 00       	nop
			}
			
				while ((PINB & (1 << PINB4)) == 0)   //While para evitar sumas indebidas
     4b2:	1c 9b       	sbis	0x03, 4	; 3
     4b4:	f5 cf       	rjmp	.-22     	; 0x4a0 <__EEPROM_REGION_LENGTH__+0xa0>
				{
					_delay_ms(30);    //antirrebote
				}
		}

		switch (estado){
     4b6:	80 91 1d 01 	lds	r24, 0x011D	; 0x80011d <estado>
     4ba:	90 91 1e 01 	lds	r25, 0x011E	; 0x80011e <estado+0x1>
     4be:	81 30       	cpi	r24, 0x01	; 1
     4c0:	91 05       	cpc	r25, r1
     4c2:	09 f4       	brne	.+2      	; 0x4c6 <__EEPROM_REGION_LENGTH__+0xc6>
     4c4:	4a c6       	rjmp	.+3220   	; 0x115a <__stack+0x85b>
     4c6:	82 30       	cpi	r24, 0x02	; 2
     4c8:	91 05       	cpc	r25, r1
     4ca:	09 f4       	brne	.+2      	; 0x4ce <__EEPROM_REGION_LENGTH__+0xce>
     4cc:	d1 c7       	rjmp	.+4002   	; 0x1470 <__stack+0xb71>
     4ce:	89 2b       	or	r24, r25
     4d0:	11 f0       	breq	.+4      	; 0x4d6 <__EEPROM_REGION_LENGTH__+0xd6>
     4d2:	0c 94 37 0d 	jmp	0x1a6e	; 0x1a6e <__stack+0x116f>
			
			case 0: //Si se desea manipular al robot con UART desde adafruit con secuencias
			
				PORTD &=  (0 << DDD4);
     4d6:	8b b1       	in	r24, 0x0b	; 11
     4d8:	1b b8       	out	0x0b, r1	; 11
				PORTD |=  (1 << DDD5);
     4da:	8b b1       	in	r24, 0x0b	; 11
     4dc:	80 62       	ori	r24, 0x20	; 32
     4de:	8b b9       	out	0x0b, r24	; 11
				PORTD |=  (0 << DDD6);
     4e0:	8b b1       	in	r24, 0x0b	; 11
     4e2:	8b b9       	out	0x0b, r24	; 11
				activa3 = 0;
     4e4:	10 92 1c 01 	sts	0x011C, r1	; 0x80011c <activa3+0x1>
     4e8:	10 92 1b 01 	sts	0x011B, r1	; 0x80011b <activa3>
								
				if(activa == 0){
     4ec:	80 91 21 01 	lds	r24, 0x0121	; 0x800121 <activa>
     4f0:	90 91 22 01 	lds	r25, 0x0122	; 0x800122 <activa+0x1>
     4f4:	00 97       	sbiw	r24, 0x00	; 0
     4f6:	39 f4       	brne	.+14     	; 0x506 <__EEPROM_REGION_LENGTH__+0x106>
				activa ++;   //Salir del menu 
     4f8:	01 96       	adiw	r24, 0x01	; 1
     4fa:	90 93 22 01 	sts	0x0122, r25	; 0x800122 <activa+0x1>
     4fe:	80 93 21 01 	sts	0x0121, r24	; 0x800121 <activa>
     502:	0c 94 37 0d 	jmp	0x1a6e	; 0x1a6e <__stack+0x116f>
				}
		
				else if (activa == 1){
     506:	81 30       	cpi	r24, 0x01	; 1
     508:	91 05       	cpc	r25, r1
     50a:	09 f0       	breq	.+2      	; 0x50e <__EEPROM_REGION_LENGTH__+0x10e>
     50c:	9e c0       	rjmp	.+316    	; 0x64a <__EEPROM_REGION_LENGTH__+0x24a>
					if(receivedChar != 0 || (PINC & (1 << PINC4)) || (PINC & (1 << PINC5)) || activa5 == 1){      //Si la variable que hay en USART es diferente de cero o pulsadores se presionan 
     50e:	80 91 02 01 	lds	r24, 0x0102	; 0x800102 <__data_end>
     512:	81 11       	cpse	r24, r1
     514:	0c c0       	rjmp	.+24     	; 0x52e <__EEPROM_REGION_LENGTH__+0x12e>
     516:	34 99       	sbic	0x06, 4	; 6
     518:	0a c0       	rjmp	.+20     	; 0x52e <__EEPROM_REGION_LENGTH__+0x12e>
     51a:	35 99       	sbic	0x06, 5	; 6
     51c:	08 c0       	rjmp	.+16     	; 0x52e <__EEPROM_REGION_LENGTH__+0x12e>
     51e:	80 91 17 01 	lds	r24, 0x0117	; 0x800117 <activa5>
     522:	90 91 18 01 	lds	r25, 0x0118	; 0x800118 <activa5+0x1>
     526:	01 97       	sbiw	r24, 0x01	; 1
     528:	11 f0       	breq	.+4      	; 0x52e <__EEPROM_REGION_LENGTH__+0x12e>
     52a:	0c 94 37 0d 	jmp	0x1a6e	; 0x1a6e <__stack+0x116f>
						
						activa5 = 1;
     52e:	81 e0       	ldi	r24, 0x01	; 1
     530:	90 e0       	ldi	r25, 0x00	; 0
     532:	90 93 18 01 	sts	0x0118, r25	; 0x800118 <activa5+0x1>
     536:	80 93 17 01 	sts	0x0117, r24	; 0x800117 <activa5>
						
						if (garra >= 255){
     53a:	80 91 13 01 	lds	r24, 0x0113	; 0x800113 <garra>
     53e:	90 91 14 01 	lds	r25, 0x0114	; 0x800114 <garra+0x1>
     542:	8f 3f       	cpi	r24, 0xFF	; 255
     544:	91 05       	cpc	r25, r1
     546:	3c f0       	brlt	.+14     	; 0x556 <__EEPROM_REGION_LENGTH__+0x156>
							garra = 254;
     548:	8e ef       	ldi	r24, 0xFE	; 254
     54a:	90 e0       	ldi	r25, 0x00	; 0
     54c:	90 93 14 01 	sts	0x0114, r25	; 0x800114 <garra+0x1>
     550:	80 93 13 01 	sts	0x0113, r24	; 0x800113 <garra>
     554:	06 c0       	rjmp	.+12     	; 0x562 <__EEPROM_REGION_LENGTH__+0x162>
						}
						else if (garra <= 1){
     556:	02 97       	sbiw	r24, 0x02	; 2
     558:	24 f4       	brge	.+8      	; 0x562 <__EEPROM_REGION_LENGTH__+0x162>
							garra = 0;
     55a:	10 92 14 01 	sts	0x0114, r1	; 0x800114 <garra+0x1>
     55e:	10 92 13 01 	sts	0x0113, r1	; 0x800113 <garra>
						}
						
						if ((PINC & (1 << PINC4)))
     562:	34 9b       	sbis	0x06, 4	; 6
     564:	0a c0       	rjmp	.+20     	; 0x57a <__EEPROM_REGION_LENGTH__+0x17a>
     566:	8f e5       	ldi	r24, 0x5F	; 95
     568:	9a ee       	ldi	r25, 0xEA	; 234
     56a:	01 97       	sbiw	r24, 0x01	; 1
     56c:	f1 f7       	brne	.-4      	; 0x56a <__EEPROM_REGION_LENGTH__+0x16a>
     56e:	00 c0       	rjmp	.+0      	; 0x570 <__EEPROM_REGION_LENGTH__+0x170>
     570:	00 00       	nop
						{
							_delay_ms(15);
							receivedChar = 'A';
     572:	81 e4       	ldi	r24, 0x41	; 65
     574:	80 93 02 01 	sts	0x0102, r24	; 0x800102 <__data_end>
     578:	1b c0       	rjmp	.+54     	; 0x5b0 <__EEPROM_REGION_LENGTH__+0x1b0>
						}
						
						else if ((PINC & (1 << PINC5)))
     57a:	35 9b       	sbis	0x06, 5	; 6
     57c:	0a c0       	rjmp	.+20     	; 0x592 <__EEPROM_REGION_LENGTH__+0x192>
     57e:	8f e5       	ldi	r24, 0x5F	; 95
     580:	9a ee       	ldi	r25, 0xEA	; 234
     582:	01 97       	sbiw	r24, 0x01	; 1
     584:	f1 f7       	brne	.-4      	; 0x582 <__EEPROM_REGION_LENGTH__+0x182>
     586:	00 c0       	rjmp	.+0      	; 0x588 <__EEPROM_REGION_LENGTH__+0x188>
     588:	00 00       	nop
						{
							_delay_ms(15);
							receivedChar = 'B';
     58a:	82 e4       	ldi	r24, 0x42	; 66
     58c:	80 93 02 01 	sts	0x0102, r24	; 0x800102 <__data_end>
     590:	0f c0       	rjmp	.+30     	; 0x5b0 <__EEPROM_REGION_LENGTH__+0x1b0>
						}
						
						else if ((PINB & (1 << PINB0))==0)
     592:	18 99       	sbic	0x03, 0	; 3
     594:	0d c0       	rjmp	.+26     	; 0x5b0 <__EEPROM_REGION_LENGTH__+0x1b0>
						{
							
							receivedChar = 'R';
     596:	82 e5       	ldi	r24, 0x52	; 82
     598:	80 93 02 01 	sts	0x0102, r24	; 0x800102 <__data_end>
     59c:	09 c0       	rjmp	.+18     	; 0x5b0 <__EEPROM_REGION_LENGTH__+0x1b0>
     59e:	9f ef       	ldi	r25, 0xFF	; 255
     5a0:	26 e7       	ldi	r18, 0x76	; 118
     5a2:	81 e0       	ldi	r24, 0x01	; 1
     5a4:	91 50       	subi	r25, 0x01	; 1
     5a6:	20 40       	sbci	r18, 0x00	; 0
     5a8:	80 40       	sbci	r24, 0x00	; 0
     5aa:	e1 f7       	brne	.-8      	; 0x5a4 <__EEPROM_REGION_LENGTH__+0x1a4>
     5ac:	00 c0       	rjmp	.+0      	; 0x5ae <__EEPROM_REGION_LENGTH__+0x1ae>
     5ae:	00 00       	nop
						}
						
						while ((PINB & (1 << PINB0)) == 0)   //While para evitar sumas indebidas
     5b0:	18 9b       	sbis	0x03, 0	; 3
     5b2:	f5 cf       	rjmp	.-22     	; 0x59e <__EEPROM_REGION_LENGTH__+0x19e>
						{
							_delay_ms(30);    //antirrebote
						}
						
						switch(receivedChar)   //Switch para elegir que se desea
     5b4:	80 91 02 01 	lds	r24, 0x0102	; 0x800102 <__data_end>
     5b8:	82 34       	cpi	r24, 0x42	; 66
     5ba:	e1 f0       	breq	.+56     	; 0x5f4 <__EEPROM_REGION_LENGTH__+0x1f4>
     5bc:	82 35       	cpi	r24, 0x52	; 82
     5be:	81 f1       	breq	.+96     	; 0x620 <__EEPROM_REGION_LENGTH__+0x220>
     5c0:	81 34       	cpi	r24, 0x41	; 65
     5c2:	11 f0       	breq	.+4      	; 0x5c8 <__EEPROM_REGION_LENGTH__+0x1c8>
     5c4:	0c 94 37 0d 	jmp	0x1a6e	; 0x1a6e <__stack+0x116f>
						{
							case 'A':
								activa2 = 1;   //Desactivar el ADC
     5c8:	81 e0       	ldi	r24, 0x01	; 1
     5ca:	90 e0       	ldi	r25, 0x00	; 0
     5cc:	90 93 20 01 	sts	0x0120, r25	; 0x800120 <activa2+0x1>
     5d0:	80 93 1f 01 	sts	0x011F, r24	; 0x80011f <activa2>
								garra = garra + 10;
     5d4:	80 91 13 01 	lds	r24, 0x0113	; 0x800113 <garra>
     5d8:	90 91 14 01 	lds	r25, 0x0114	; 0x800114 <garra+0x1>
     5dc:	0a 96       	adiw	r24, 0x0a	; 10
     5de:	90 93 14 01 	sts	0x0114, r25	; 0x800114 <garra+0x1>
     5e2:	80 93 13 01 	sts	0x0113, r24	; 0x800113 <garra>
								convertServo2(garra, channel2A);
     5e6:	61 e0       	ldi	r22, 0x01	; 1
     5e8:	0e 94 b0 0e 	call	0x1d60	; 0x1d60 <convertServo2>
								receivedChar = 0;
     5ec:	10 92 02 01 	sts	0x0102, r1	; 0x800102 <__data_end>
					          
								break;
     5f0:	0c 94 37 0d 	jmp	0x1a6e	; 0x1a6e <__stack+0x116f>
							
							case 'B':
								activa2 = 1;   //Desactivar el ADC
     5f4:	81 e0       	ldi	r24, 0x01	; 1
     5f6:	90 e0       	ldi	r25, 0x00	; 0
     5f8:	90 93 20 01 	sts	0x0120, r25	; 0x800120 <activa2+0x1>
     5fc:	80 93 1f 01 	sts	0x011F, r24	; 0x80011f <activa2>
								garra = garra - 10;
     600:	80 91 13 01 	lds	r24, 0x0113	; 0x800113 <garra>
     604:	90 91 14 01 	lds	r25, 0x0114	; 0x800114 <garra+0x1>
     608:	0a 97       	sbiw	r24, 0x0a	; 10
     60a:	90 93 14 01 	sts	0x0114, r25	; 0x800114 <garra+0x1>
     60e:	80 93 13 01 	sts	0x0113, r24	; 0x800113 <garra>
								convertServo2(garra, channel2A);
     612:	61 e0       	ldi	r22, 0x01	; 1
     614:	0e 94 b0 0e 	call	0x1d60	; 0x1d60 <convertServo2>
								receivedChar = 0;
     618:	10 92 02 01 	sts	0x0102, r1	; 0x800102 <__data_end>
								
								break;
     61c:	0c 94 37 0d 	jmp	0x1a6e	; 0x1a6e <__stack+0x116f>
							
							case 'R':
								garra1 = garra;
     620:	80 91 13 01 	lds	r24, 0x0113	; 0x800113 <garra>
     624:	90 91 14 01 	lds	r25, 0x0114	; 0x800114 <garra+0x1>
     628:	90 93 12 01 	sts	0x0112, r25	; 0x800112 <garra1+0x1>
     62c:	80 93 11 01 	sts	0x0111, r24	; 0x800111 <garra1>
								activa ++;
     630:	80 91 21 01 	lds	r24, 0x0121	; 0x800121 <activa>
     634:	90 91 22 01 	lds	r25, 0x0122	; 0x800122 <activa+0x1>
     638:	01 96       	adiw	r24, 0x01	; 1
     63a:	90 93 22 01 	sts	0x0122, r25	; 0x800122 <activa+0x1>
     63e:	80 93 21 01 	sts	0x0121, r24	; 0x800121 <activa>
								receivedChar = 0;
     642:	10 92 02 01 	sts	0x0102, r1	; 0x800102 <__data_end>
								break;
     646:	0c 94 37 0d 	jmp	0x1a6e	; 0x1a6e <__stack+0x116f>
					}
					
				}
				
				
				else if (activa == 2){
     64a:	82 30       	cpi	r24, 0x02	; 2
     64c:	91 05       	cpc	r25, r1
     64e:	09 f0       	breq	.+2      	; 0x652 <__EEPROM_REGION_LENGTH__+0x252>
     650:	84 c0       	rjmp	.+264    	; 0x75a <__EEPROM_REGION_LENGTH__+0x35a>
					activa5 = 0;
     652:	10 92 18 01 	sts	0x0118, r1	; 0x800118 <activa5+0x1>
     656:	10 92 17 01 	sts	0x0117, r1	; 0x800117 <activa5>
					if(receivedChar != 0 || (PINC & (1 << PINC4)) || (PINC & (1 << PINC5)) || (PINB & (1 << PINB0)) == 0){      
     65a:	80 91 02 01 	lds	r24, 0x0102	; 0x800102 <__data_end>
     65e:	81 11       	cpse	r24, r1
     660:	08 c0       	rjmp	.+16     	; 0x672 <__EEPROM_REGION_LENGTH__+0x272>
     662:	34 99       	sbic	0x06, 4	; 6
     664:	06 c0       	rjmp	.+12     	; 0x672 <__EEPROM_REGION_LENGTH__+0x272>
     666:	35 99       	sbic	0x06, 5	; 6
     668:	04 c0       	rjmp	.+8      	; 0x672 <__EEPROM_REGION_LENGTH__+0x272>
     66a:	18 9b       	sbis	0x03, 0	; 3
     66c:	02 c0       	rjmp	.+4      	; 0x672 <__EEPROM_REGION_LENGTH__+0x272>
     66e:	0c 94 37 0d 	jmp	0x1a6e	; 0x1a6e <__stack+0x116f>
					
						
						if (garra1 >= 255){
     672:	80 91 11 01 	lds	r24, 0x0111	; 0x800111 <garra1>
     676:	90 91 12 01 	lds	r25, 0x0112	; 0x800112 <garra1+0x1>
     67a:	8f 3f       	cpi	r24, 0xFF	; 255
     67c:	91 05       	cpc	r25, r1
     67e:	3c f0       	brlt	.+14     	; 0x68e <__EEPROM_REGION_LENGTH__+0x28e>
							garra1 = 254;
     680:	8e ef       	ldi	r24, 0xFE	; 254
     682:	90 e0       	ldi	r25, 0x00	; 0
     684:	90 93 12 01 	sts	0x0112, r25	; 0x800112 <garra1+0x1>
     688:	80 93 11 01 	sts	0x0111, r24	; 0x800111 <garra1>
     68c:	06 c0       	rjmp	.+12     	; 0x69a <__EEPROM_REGION_LENGTH__+0x29a>
						}
						else if (garra1 <= 1){
     68e:	02 97       	sbiw	r24, 0x02	; 2
     690:	24 f4       	brge	.+8      	; 0x69a <__EEPROM_REGION_LENGTH__+0x29a>
							garra1 = 0;
     692:	10 92 12 01 	sts	0x0112, r1	; 0x800112 <garra1+0x1>
     696:	10 92 11 01 	sts	0x0111, r1	; 0x800111 <garra1>
						}
						
						if ((PINC & (1 << PINC4)))
     69a:	34 9b       	sbis	0x06, 4	; 6
     69c:	0a c0       	rjmp	.+20     	; 0x6b2 <__EEPROM_REGION_LENGTH__+0x2b2>
						{
							receivedChar = 'A';
     69e:	81 e4       	ldi	r24, 0x41	; 65
     6a0:	80 93 02 01 	sts	0x0102, r24	; 0x800102 <__data_end>
     6a4:	8f e5       	ldi	r24, 0x5F	; 95
     6a6:	9a ee       	ldi	r25, 0xEA	; 234
     6a8:	01 97       	sbiw	r24, 0x01	; 1
     6aa:	f1 f7       	brne	.-4      	; 0x6a8 <__EEPROM_REGION_LENGTH__+0x2a8>
     6ac:	00 c0       	rjmp	.+0      	; 0x6ae <__EEPROM_REGION_LENGTH__+0x2ae>
     6ae:	00 00       	nop
     6b0:	1b c0       	rjmp	.+54     	; 0x6e8 <__EEPROM_REGION_LENGTH__+0x2e8>
							_delay_ms(15);
						}
						
						else if ((PINC & (1 << PINC5)))
     6b2:	35 9b       	sbis	0x06, 5	; 6
     6b4:	0a c0       	rjmp	.+20     	; 0x6ca <__EEPROM_REGION_LENGTH__+0x2ca>
						{
							receivedChar = 'B';
     6b6:	82 e4       	ldi	r24, 0x42	; 66
     6b8:	80 93 02 01 	sts	0x0102, r24	; 0x800102 <__data_end>
     6bc:	8f e5       	ldi	r24, 0x5F	; 95
     6be:	9a ee       	ldi	r25, 0xEA	; 234
     6c0:	01 97       	sbiw	r24, 0x01	; 1
     6c2:	f1 f7       	brne	.-4      	; 0x6c0 <__EEPROM_REGION_LENGTH__+0x2c0>
     6c4:	00 c0       	rjmp	.+0      	; 0x6c6 <__EEPROM_REGION_LENGTH__+0x2c6>
     6c6:	00 00       	nop
     6c8:	0f c0       	rjmp	.+30     	; 0x6e8 <__EEPROM_REGION_LENGTH__+0x2e8>
							_delay_ms(15);
						}
						
						else if ((PINB & (1 << PINB0))==0)
     6ca:	18 99       	sbic	0x03, 0	; 3
     6cc:	0d c0       	rjmp	.+26     	; 0x6e8 <__EEPROM_REGION_LENGTH__+0x2e8>
						{
							receivedChar = 'R';
     6ce:	82 e5       	ldi	r24, 0x52	; 82
     6d0:	80 93 02 01 	sts	0x0102, r24	; 0x800102 <__data_end>
     6d4:	09 c0       	rjmp	.+18     	; 0x6e8 <__EEPROM_REGION_LENGTH__+0x2e8>
     6d6:	9f ef       	ldi	r25, 0xFF	; 255
     6d8:	26 e7       	ldi	r18, 0x76	; 118
     6da:	81 e0       	ldi	r24, 0x01	; 1
     6dc:	91 50       	subi	r25, 0x01	; 1
     6de:	20 40       	sbci	r18, 0x00	; 0
     6e0:	80 40       	sbci	r24, 0x00	; 0
     6e2:	e1 f7       	brne	.-8      	; 0x6dc <__EEPROM_REGION_LENGTH__+0x2dc>
     6e4:	00 c0       	rjmp	.+0      	; 0x6e6 <__EEPROM_REGION_LENGTH__+0x2e6>
     6e6:	00 00       	nop
						}
						
							while ((PINB & (1 << PINB0)) == 0)   //While para evitar sumas indebidas
     6e8:	18 9b       	sbis	0x03, 0	; 3
     6ea:	f5 cf       	rjmp	.-22     	; 0x6d6 <__EEPROM_REGION_LENGTH__+0x2d6>
							{
								_delay_ms(30);    //antirrebote
							}
						
						
						switch(receivedChar)   //Switch para elegir que se desea
     6ec:	80 91 02 01 	lds	r24, 0x0102	; 0x800102 <__data_end>
     6f0:	82 34       	cpi	r24, 0x42	; 66
     6f2:	b1 f0       	breq	.+44     	; 0x720 <__EEPROM_REGION_LENGTH__+0x320>
     6f4:	82 35       	cpi	r24, 0x52	; 82
     6f6:	21 f1       	breq	.+72     	; 0x740 <__EEPROM_REGION_LENGTH__+0x340>
     6f8:	81 34       	cpi	r24, 0x41	; 65
     6fa:	11 f0       	breq	.+4      	; 0x700 <__EEPROM_REGION_LENGTH__+0x300>
     6fc:	0c 94 37 0d 	jmp	0x1a6e	; 0x1a6e <__stack+0x116f>
						{
							case 'A':
								garra1 = garra1 + 10;
     700:	80 91 11 01 	lds	r24, 0x0111	; 0x800111 <garra1>
     704:	90 91 12 01 	lds	r25, 0x0112	; 0x800112 <garra1+0x1>
     708:	0a 96       	adiw	r24, 0x0a	; 10
     70a:	90 93 12 01 	sts	0x0112, r25	; 0x800112 <garra1+0x1>
     70e:	80 93 11 01 	sts	0x0111, r24	; 0x800111 <garra1>
								convertServo2(garra1, channel2A);
     712:	61 e0       	ldi	r22, 0x01	; 1
     714:	0e 94 b0 0e 	call	0x1d60	; 0x1d60 <convertServo2>
								receivedChar = 0;
     718:	10 92 02 01 	sts	0x0102, r1	; 0x800102 <__data_end>
					
								break;
     71c:	0c 94 37 0d 	jmp	0x1a6e	; 0x1a6e <__stack+0x116f>
							
							case 'B':

								garra1 = garra1 - 10;
     720:	80 91 11 01 	lds	r24, 0x0111	; 0x800111 <garra1>
     724:	90 91 12 01 	lds	r25, 0x0112	; 0x800112 <garra1+0x1>
     728:	0a 97       	sbiw	r24, 0x0a	; 10
     72a:	90 93 12 01 	sts	0x0112, r25	; 0x800112 <garra1+0x1>
     72e:	80 93 11 01 	sts	0x0111, r24	; 0x800111 <garra1>
								convertServo2(garra1, channel2A);
     732:	61 e0       	ldi	r22, 0x01	; 1
     734:	0e 94 b0 0e 	call	0x1d60	; 0x1d60 <convertServo2>
								receivedChar = 0;
     738:	10 92 02 01 	sts	0x0102, r1	; 0x800102 <__data_end>
								
								break;
     73c:	0c 94 37 0d 	jmp	0x1a6e	; 0x1a6e <__stack+0x116f>
							
							case 'R':
								activa ++;
     740:	80 91 21 01 	lds	r24, 0x0121	; 0x800121 <activa>
     744:	90 91 22 01 	lds	r25, 0x0122	; 0x800122 <activa+0x1>
     748:	01 96       	adiw	r24, 0x01	; 1
     74a:	90 93 22 01 	sts	0x0122, r25	; 0x800122 <activa+0x1>
     74e:	80 93 21 01 	sts	0x0121, r24	; 0x800121 <activa>
								receivedChar = 0;
     752:	10 92 02 01 	sts	0x0102, r1	; 0x800102 <__data_end>
								break;
     756:	0c 94 37 0d 	jmp	0x1a6e	; 0x1a6e <__stack+0x116f>
						
					}
					
				}
				
			else if (activa == 3){
     75a:	83 30       	cpi	r24, 0x03	; 3
     75c:	91 05       	cpc	r25, r1
     75e:	09 f0       	breq	.+2      	; 0x762 <__EEPROM_REGION_LENGTH__+0x362>
     760:	8f c0       	rjmp	.+286    	; 0x880 <__DATA_REGION_LENGTH__+0x80>
				if(receivedChar != 0 || (PINC & (1 << PINC4)) || (PINC & (1 << PINC5)) || (PINB & (1 << PINB0)) == 0){      //Si la variable que hay en USART es diferente de cero
     762:	80 91 02 01 	lds	r24, 0x0102	; 0x800102 <__data_end>
     766:	81 11       	cpse	r24, r1
     768:	08 c0       	rjmp	.+16     	; 0x77a <__EEPROM_REGION_LENGTH__+0x37a>
     76a:	34 99       	sbic	0x06, 4	; 6
     76c:	06 c0       	rjmp	.+12     	; 0x77a <__EEPROM_REGION_LENGTH__+0x37a>
     76e:	35 99       	sbic	0x06, 5	; 6
     770:	04 c0       	rjmp	.+8      	; 0x77a <__EEPROM_REGION_LENGTH__+0x37a>
     772:	18 9b       	sbis	0x03, 0	; 3
     774:	02 c0       	rjmp	.+4      	; 0x77a <__EEPROM_REGION_LENGTH__+0x37a>
     776:	0c 94 37 0d 	jmp	0x1a6e	; 0x1a6e <__stack+0x116f>
					
					
					if (brazo >= 255){
     77a:	80 91 0f 01 	lds	r24, 0x010F	; 0x80010f <brazo>
     77e:	90 91 10 01 	lds	r25, 0x0110	; 0x800110 <brazo+0x1>
     782:	8f 3f       	cpi	r24, 0xFF	; 255
     784:	91 05       	cpc	r25, r1
     786:	3c f0       	brlt	.+14     	; 0x796 <__EEPROM_REGION_LENGTH__+0x396>
						brazo = 254;
     788:	8e ef       	ldi	r24, 0xFE	; 254
     78a:	90 e0       	ldi	r25, 0x00	; 0
     78c:	90 93 10 01 	sts	0x0110, r25	; 0x800110 <brazo+0x1>
     790:	80 93 0f 01 	sts	0x010F, r24	; 0x80010f <brazo>
     794:	06 c0       	rjmp	.+12     	; 0x7a2 <__EEPROM_REGION_LENGTH__+0x3a2>
					}
					else if (brazo <= 1){
     796:	02 97       	sbiw	r24, 0x02	; 2
     798:	24 f4       	brge	.+8      	; 0x7a2 <__EEPROM_REGION_LENGTH__+0x3a2>
						brazo = 0;
     79a:	10 92 10 01 	sts	0x0110, r1	; 0x800110 <brazo+0x1>
     79e:	10 92 0f 01 	sts	0x010F, r1	; 0x80010f <brazo>
					}
					
					if ((PINC & (1 << PINC4)))
     7a2:	34 9b       	sbis	0x06, 4	; 6
     7a4:	0d c0       	rjmp	.+26     	; 0x7c0 <__EEPROM_REGION_LENGTH__+0x3c0>
					{
						receivedChar = 'A';
     7a6:	81 e4       	ldi	r24, 0x41	; 65
     7a8:	80 93 02 01 	sts	0x0102, r24	; 0x800102 <__data_end>
     7ac:	9f e7       	ldi	r25, 0x7F	; 127
     7ae:	28 e3       	ldi	r18, 0x38	; 56
     7b0:	81 e0       	ldi	r24, 0x01	; 1
     7b2:	91 50       	subi	r25, 0x01	; 1
     7b4:	20 40       	sbci	r18, 0x00	; 0
     7b6:	80 40       	sbci	r24, 0x00	; 0
     7b8:	e1 f7       	brne	.-8      	; 0x7b2 <__EEPROM_REGION_LENGTH__+0x3b2>
     7ba:	00 c0       	rjmp	.+0      	; 0x7bc <__EEPROM_REGION_LENGTH__+0x3bc>
     7bc:	00 00       	nop
     7be:	1e c0       	rjmp	.+60     	; 0x7fc <__EEPROM_REGION_LENGTH__+0x3fc>
						_delay_ms(25);
					}
					
					else if ((PINC & (1 << PINC5)))
     7c0:	35 9b       	sbis	0x06, 5	; 6
     7c2:	0d c0       	rjmp	.+26     	; 0x7de <__EEPROM_REGION_LENGTH__+0x3de>
					{
						receivedChar = 'B';
     7c4:	82 e4       	ldi	r24, 0x42	; 66
     7c6:	80 93 02 01 	sts	0x0102, r24	; 0x800102 <__data_end>
     7ca:	9f e7       	ldi	r25, 0x7F	; 127
     7cc:	28 e3       	ldi	r18, 0x38	; 56
     7ce:	81 e0       	ldi	r24, 0x01	; 1
     7d0:	91 50       	subi	r25, 0x01	; 1
     7d2:	20 40       	sbci	r18, 0x00	; 0
     7d4:	80 40       	sbci	r24, 0x00	; 0
     7d6:	e1 f7       	brne	.-8      	; 0x7d0 <__EEPROM_REGION_LENGTH__+0x3d0>
     7d8:	00 c0       	rjmp	.+0      	; 0x7da <__EEPROM_REGION_LENGTH__+0x3da>
     7da:	00 00       	nop
     7dc:	0f c0       	rjmp	.+30     	; 0x7fc <__EEPROM_REGION_LENGTH__+0x3fc>
						_delay_ms(25);
					}
					
					else if ((PINB & (1 << PINB0))==0)
     7de:	18 99       	sbic	0x03, 0	; 3
     7e0:	0d c0       	rjmp	.+26     	; 0x7fc <__EEPROM_REGION_LENGTH__+0x3fc>
					{
						receivedChar = 'R';
     7e2:	82 e5       	ldi	r24, 0x52	; 82
     7e4:	80 93 02 01 	sts	0x0102, r24	; 0x800102 <__data_end>
     7e8:	09 c0       	rjmp	.+18     	; 0x7fc <__EEPROM_REGION_LENGTH__+0x3fc>
     7ea:	9f ef       	ldi	r25, 0xFF	; 255
     7ec:	26 e7       	ldi	r18, 0x76	; 118
     7ee:	81 e0       	ldi	r24, 0x01	; 1
     7f0:	91 50       	subi	r25, 0x01	; 1
     7f2:	20 40       	sbci	r18, 0x00	; 0
     7f4:	80 40       	sbci	r24, 0x00	; 0
     7f6:	e1 f7       	brne	.-8      	; 0x7f0 <__EEPROM_REGION_LENGTH__+0x3f0>
     7f8:	00 c0       	rjmp	.+0      	; 0x7fa <__EEPROM_REGION_LENGTH__+0x3fa>
     7fa:	00 00       	nop
					}
					
						while ((PINB & (1 << PINB0)) == 0)   //While para evitar sumas indebidas
     7fc:	18 9b       	sbis	0x03, 0	; 3
     7fe:	f5 cf       	rjmp	.-22     	; 0x7ea <__EEPROM_REGION_LENGTH__+0x3ea>
						{
							_delay_ms(30);    //antirrebote
						}
					
					switch(receivedChar)   //Switch para elegir que se desea
     800:	80 91 02 01 	lds	r24, 0x0102	; 0x800102 <__data_end>
     804:	82 34       	cpi	r24, 0x42	; 66
     806:	39 f0       	breq	.+14     	; 0x816 <__DATA_REGION_LENGTH__+0x16>
     808:	82 35       	cpi	r24, 0x52	; 82
     80a:	29 f1       	breq	.+74     	; 0x856 <__DATA_REGION_LENGTH__+0x56>
     80c:	81 34       	cpi	r24, 0x41	; 65
     80e:	11 f0       	breq	.+4      	; 0x814 <__DATA_REGION_LENGTH__+0x14>
     810:	0c 94 37 0d 	jmp	0x1a6e	; 0x1a6e <__stack+0x116f>
     814:	10 c0       	rjmp	.+32     	; 0x836 <__DATA_REGION_LENGTH__+0x36>
					{
						case 'B':
						brazo = brazo + 10;
     816:	80 91 0f 01 	lds	r24, 0x010F	; 0x80010f <brazo>
     81a:	90 91 10 01 	lds	r25, 0x0110	; 0x800110 <brazo+0x1>
     81e:	0a 96       	adiw	r24, 0x0a	; 10
     820:	90 93 10 01 	sts	0x0110, r25	; 0x800110 <brazo+0x1>
     824:	80 93 0f 01 	sts	0x010F, r24	; 0x80010f <brazo>
						convertServo(brazo, channelA);
     828:	61 e0       	ldi	r22, 0x01	; 1
     82a:	0e 94 67 0e 	call	0x1cce	; 0x1cce <convertServo>
						receivedChar = 0;
     82e:	10 92 02 01 	sts	0x0102, r1	; 0x800102 <__data_end>
						
						break;
     832:	0c 94 37 0d 	jmp	0x1a6e	; 0x1a6e <__stack+0x116f>
						
						case 'A':
						brazo = brazo - 10;
     836:	80 91 0f 01 	lds	r24, 0x010F	; 0x80010f <brazo>
     83a:	90 91 10 01 	lds	r25, 0x0110	; 0x800110 <brazo+0x1>
     83e:	0a 97       	sbiw	r24, 0x0a	; 10
     840:	90 93 10 01 	sts	0x0110, r25	; 0x800110 <brazo+0x1>
     844:	80 93 0f 01 	sts	0x010F, r24	; 0x80010f <brazo>
						convertServo(brazo, channelA);
     848:	61 e0       	ldi	r22, 0x01	; 1
     84a:	0e 94 67 0e 	call	0x1cce	; 0x1cce <convertServo>
						receivedChar = 0;
     84e:	10 92 02 01 	sts	0x0102, r1	; 0x800102 <__data_end>
						
						break;
     852:	0c 94 37 0d 	jmp	0x1a6e	; 0x1a6e <__stack+0x116f>
						
						case 'R':
						brazo1 = brazo;
     856:	80 91 0f 01 	lds	r24, 0x010F	; 0x80010f <brazo>
     85a:	90 91 10 01 	lds	r25, 0x0110	; 0x800110 <brazo+0x1>
     85e:	90 93 0e 01 	sts	0x010E, r25	; 0x80010e <brazo1+0x1>
     862:	80 93 0d 01 	sts	0x010D, r24	; 0x80010d <brazo1>
						activa ++;
     866:	80 91 21 01 	lds	r24, 0x0121	; 0x800121 <activa>
     86a:	90 91 22 01 	lds	r25, 0x0122	; 0x800122 <activa+0x1>
     86e:	01 96       	adiw	r24, 0x01	; 1
     870:	90 93 22 01 	sts	0x0122, r25	; 0x800122 <activa+0x1>
     874:	80 93 21 01 	sts	0x0121, r24	; 0x800121 <activa>
						receivedChar = 0;
     878:	10 92 02 01 	sts	0x0102, r1	; 0x800102 <__data_end>
						break;
     87c:	0c 94 37 0d 	jmp	0x1a6e	; 0x1a6e <__stack+0x116f>
					
				}
				
			}
			
		else if (activa == 4){
     880:	84 30       	cpi	r24, 0x04	; 4
     882:	91 05       	cpc	r25, r1
     884:	09 f0       	breq	.+2      	; 0x888 <__DATA_REGION_LENGTH__+0x88>
     886:	87 c0       	rjmp	.+270    	; 0x996 <__stack+0x97>
			if(receivedChar != 0 || (PINC & (1 << PINC4)) || (PINC & (1 << PINC5)) || (PINB & (1 << PINB0)) == 0){      //Si la variable que hay en USART es diferente de cero
     888:	80 91 02 01 	lds	r24, 0x0102	; 0x800102 <__data_end>
     88c:	81 11       	cpse	r24, r1
     88e:	08 c0       	rjmp	.+16     	; 0x8a0 <__DATA_REGION_LENGTH__+0xa0>
     890:	34 99       	sbic	0x06, 4	; 6
     892:	06 c0       	rjmp	.+12     	; 0x8a0 <__DATA_REGION_LENGTH__+0xa0>
     894:	35 99       	sbic	0x06, 5	; 6
     896:	04 c0       	rjmp	.+8      	; 0x8a0 <__DATA_REGION_LENGTH__+0xa0>
     898:	18 9b       	sbis	0x03, 0	; 3
     89a:	02 c0       	rjmp	.+4      	; 0x8a0 <__DATA_REGION_LENGTH__+0xa0>
     89c:	0c 94 37 0d 	jmp	0x1a6e	; 0x1a6e <__stack+0x116f>
			
			
				if (brazo1 >= 255){
     8a0:	80 91 0d 01 	lds	r24, 0x010D	; 0x80010d <brazo1>
     8a4:	90 91 0e 01 	lds	r25, 0x010E	; 0x80010e <brazo1+0x1>
     8a8:	8f 3f       	cpi	r24, 0xFF	; 255
     8aa:	91 05       	cpc	r25, r1
     8ac:	3c f0       	brlt	.+14     	; 0x8bc <__DATA_REGION_LENGTH__+0xbc>
					brazo1 = 254;
     8ae:	8e ef       	ldi	r24, 0xFE	; 254
     8b0:	90 e0       	ldi	r25, 0x00	; 0
     8b2:	90 93 0e 01 	sts	0x010E, r25	; 0x80010e <brazo1+0x1>
     8b6:	80 93 0d 01 	sts	0x010D, r24	; 0x80010d <brazo1>
     8ba:	06 c0       	rjmp	.+12     	; 0x8c8 <__DATA_REGION_LENGTH__+0xc8>
				}
				else if (brazo1 <= 1){
     8bc:	02 97       	sbiw	r24, 0x02	; 2
     8be:	24 f4       	brge	.+8      	; 0x8c8 <__DATA_REGION_LENGTH__+0xc8>
					brazo1 = 0;
     8c0:	10 92 0e 01 	sts	0x010E, r1	; 0x80010e <brazo1+0x1>
     8c4:	10 92 0d 01 	sts	0x010D, r1	; 0x80010d <brazo1>
				}
				
				if ((PINC & (1 << PINC4)))
     8c8:	34 9b       	sbis	0x06, 4	; 6
     8ca:	0d c0       	rjmp	.+26     	; 0x8e6 <__DATA_REGION_LENGTH__+0xe6>
				{
					receivedChar = 'A';
     8cc:	81 e4       	ldi	r24, 0x41	; 65
     8ce:	80 93 02 01 	sts	0x0102, r24	; 0x800102 <__data_end>
     8d2:	9f e7       	ldi	r25, 0x7F	; 127
     8d4:	28 e3       	ldi	r18, 0x38	; 56
     8d6:	81 e0       	ldi	r24, 0x01	; 1
     8d8:	91 50       	subi	r25, 0x01	; 1
     8da:	20 40       	sbci	r18, 0x00	; 0
     8dc:	80 40       	sbci	r24, 0x00	; 0
     8de:	e1 f7       	brne	.-8      	; 0x8d8 <__DATA_REGION_LENGTH__+0xd8>
     8e0:	00 c0       	rjmp	.+0      	; 0x8e2 <__DATA_REGION_LENGTH__+0xe2>
     8e2:	00 00       	nop
     8e4:	1e c0       	rjmp	.+60     	; 0x922 <__stack+0x23>
					_delay_ms(25);
				}
				
				else if ((PINC & (1 << PINC5)))
     8e6:	35 9b       	sbis	0x06, 5	; 6
     8e8:	0d c0       	rjmp	.+26     	; 0x904 <__stack+0x5>
				{
					receivedChar = 'B';
     8ea:	82 e4       	ldi	r24, 0x42	; 66
     8ec:	80 93 02 01 	sts	0x0102, r24	; 0x800102 <__data_end>
     8f0:	9f e7       	ldi	r25, 0x7F	; 127
     8f2:	28 e3       	ldi	r18, 0x38	; 56
     8f4:	81 e0       	ldi	r24, 0x01	; 1
     8f6:	91 50       	subi	r25, 0x01	; 1
     8f8:	20 40       	sbci	r18, 0x00	; 0
     8fa:	80 40       	sbci	r24, 0x00	; 0
     8fc:	e1 f7       	brne	.-8      	; 0x8f6 <__DATA_REGION_LENGTH__+0xf6>
     8fe:	00 c0       	rjmp	.+0      	; 0x900 <__stack+0x1>
     900:	00 00       	nop
     902:	0f c0       	rjmp	.+30     	; 0x922 <__stack+0x23>
					_delay_ms(25);
				}
				
				else if ((PINB & (1 << PINB0))==0)
     904:	18 99       	sbic	0x03, 0	; 3
     906:	0d c0       	rjmp	.+26     	; 0x922 <__stack+0x23>
				{
					receivedChar = 'R';
     908:	82 e5       	ldi	r24, 0x52	; 82
     90a:	80 93 02 01 	sts	0x0102, r24	; 0x800102 <__data_end>
     90e:	09 c0       	rjmp	.+18     	; 0x922 <__stack+0x23>
     910:	9f ef       	ldi	r25, 0xFF	; 255
     912:	26 e7       	ldi	r18, 0x76	; 118
     914:	81 e0       	ldi	r24, 0x01	; 1
     916:	91 50       	subi	r25, 0x01	; 1
     918:	20 40       	sbci	r18, 0x00	; 0
     91a:	80 40       	sbci	r24, 0x00	; 0
     91c:	e1 f7       	brne	.-8      	; 0x916 <__stack+0x17>
     91e:	00 c0       	rjmp	.+0      	; 0x920 <__stack+0x21>
     920:	00 00       	nop
				}
			
				while ((PINB & (1 << PINB0)) == 0)   //While para evitar sumas indebidas
     922:	18 9b       	sbis	0x03, 0	; 3
     924:	f5 cf       	rjmp	.-22     	; 0x910 <__stack+0x11>
				{
					_delay_ms(30);    //antirrebote
				}
			
				switch(receivedChar)   //Switch para elegir que se desea
     926:	80 91 02 01 	lds	r24, 0x0102	; 0x800102 <__data_end>
     92a:	82 34       	cpi	r24, 0x42	; 66
     92c:	39 f0       	breq	.+14     	; 0x93c <__stack+0x3d>
     92e:	82 35       	cpi	r24, 0x52	; 82
     930:	29 f1       	breq	.+74     	; 0x97c <__stack+0x7d>
     932:	81 34       	cpi	r24, 0x41	; 65
     934:	11 f0       	breq	.+4      	; 0x93a <__stack+0x3b>
     936:	0c 94 37 0d 	jmp	0x1a6e	; 0x1a6e <__stack+0x116f>
     93a:	10 c0       	rjmp	.+32     	; 0x95c <__stack+0x5d>
				{
					case 'B':
					brazo1 = brazo1 + 10;
     93c:	80 91 0d 01 	lds	r24, 0x010D	; 0x80010d <brazo1>
     940:	90 91 0e 01 	lds	r25, 0x010E	; 0x80010e <brazo1+0x1>
     944:	0a 96       	adiw	r24, 0x0a	; 10
     946:	90 93 0e 01 	sts	0x010E, r25	; 0x80010e <brazo1+0x1>
     94a:	80 93 0d 01 	sts	0x010D, r24	; 0x80010d <brazo1>
					convertServo(brazo1, channelA);
     94e:	61 e0       	ldi	r22, 0x01	; 1
     950:	0e 94 67 0e 	call	0x1cce	; 0x1cce <convertServo>
					receivedChar = 0;
     954:	10 92 02 01 	sts	0x0102, r1	; 0x800102 <__data_end>
				
					break;
     958:	0c 94 37 0d 	jmp	0x1a6e	; 0x1a6e <__stack+0x116f>
				
					case 'A':
					brazo1 = brazo1 - 10;
     95c:	80 91 0d 01 	lds	r24, 0x010D	; 0x80010d <brazo1>
     960:	90 91 0e 01 	lds	r25, 0x010E	; 0x80010e <brazo1+0x1>
     964:	0a 97       	sbiw	r24, 0x0a	; 10
     966:	90 93 0e 01 	sts	0x010E, r25	; 0x80010e <brazo1+0x1>
     96a:	80 93 0d 01 	sts	0x010D, r24	; 0x80010d <brazo1>
					convertServo(brazo1, channelA);
     96e:	61 e0       	ldi	r22, 0x01	; 1
     970:	0e 94 67 0e 	call	0x1cce	; 0x1cce <convertServo>
					receivedChar = 0;
     974:	10 92 02 01 	sts	0x0102, r1	; 0x800102 <__data_end>
				
					break;
     978:	0c 94 37 0d 	jmp	0x1a6e	; 0x1a6e <__stack+0x116f>
				
					case 'R':
					activa ++;
     97c:	80 91 21 01 	lds	r24, 0x0121	; 0x800121 <activa>
     980:	90 91 22 01 	lds	r25, 0x0122	; 0x800122 <activa+0x1>
     984:	01 96       	adiw	r24, 0x01	; 1
     986:	90 93 22 01 	sts	0x0122, r25	; 0x800122 <activa+0x1>
     98a:	80 93 21 01 	sts	0x0121, r24	; 0x800121 <activa>
					receivedChar = 0;
     98e:	10 92 02 01 	sts	0x0102, r1	; 0x800102 <__data_end>
					break;
     992:	0c 94 37 0d 	jmp	0x1a6e	; 0x1a6e <__stack+0x116f>
			
			}
		
		}
		
		else if (activa == 5){
     996:	85 30       	cpi	r24, 0x05	; 5
     998:	91 05       	cpc	r25, r1
     99a:	09 f0       	breq	.+2      	; 0x99e <__stack+0x9f>
     99c:	87 c0       	rjmp	.+270    	; 0xaac <__stack+0x1ad>
			if(receivedChar != 0 || (PINC & (1 << PINC4)) || (PINC & (1 << PINC5)) || (PINB & (1 << PINB0)) == 0){      //Si la variable que hay en USART es diferente de cero
     99e:	80 91 02 01 	lds	r24, 0x0102	; 0x800102 <__data_end>
     9a2:	81 11       	cpse	r24, r1
     9a4:	08 c0       	rjmp	.+16     	; 0x9b6 <__stack+0xb7>
     9a6:	34 99       	sbic	0x06, 4	; 6
     9a8:	06 c0       	rjmp	.+12     	; 0x9b6 <__stack+0xb7>
     9aa:	35 99       	sbic	0x06, 5	; 6
     9ac:	04 c0       	rjmp	.+8      	; 0x9b6 <__stack+0xb7>
     9ae:	18 9b       	sbis	0x03, 0	; 3
     9b0:	02 c0       	rjmp	.+4      	; 0x9b6 <__stack+0xb7>
     9b2:	0c 94 37 0d 	jmp	0x1a6e	; 0x1a6e <__stack+0x116f>
			
			
				if (codo >= 255){
     9b6:	80 91 0b 01 	lds	r24, 0x010B	; 0x80010b <codo>
     9ba:	90 91 0c 01 	lds	r25, 0x010C	; 0x80010c <codo+0x1>
     9be:	8f 3f       	cpi	r24, 0xFF	; 255
     9c0:	91 05       	cpc	r25, r1
     9c2:	3c f0       	brlt	.+14     	; 0x9d2 <__stack+0xd3>
					codo = 254;
     9c4:	8e ef       	ldi	r24, 0xFE	; 254
     9c6:	90 e0       	ldi	r25, 0x00	; 0
     9c8:	90 93 0c 01 	sts	0x010C, r25	; 0x80010c <codo+0x1>
     9cc:	80 93 0b 01 	sts	0x010B, r24	; 0x80010b <codo>
     9d0:	06 c0       	rjmp	.+12     	; 0x9de <__stack+0xdf>
				}
				else if (codo <= 1){
     9d2:	02 97       	sbiw	r24, 0x02	; 2
     9d4:	24 f4       	brge	.+8      	; 0x9de <__stack+0xdf>
					codo = 0;
     9d6:	10 92 0c 01 	sts	0x010C, r1	; 0x80010c <codo+0x1>
     9da:	10 92 0b 01 	sts	0x010B, r1	; 0x80010b <codo>
				}
				
				if ((PINC & (1 << PINC4)))
     9de:	34 9b       	sbis	0x06, 4	; 6
     9e0:	0a c0       	rjmp	.+20     	; 0x9f6 <__stack+0xf7>
				{
					receivedChar = 'A';
     9e2:	81 e4       	ldi	r24, 0x41	; 65
     9e4:	80 93 02 01 	sts	0x0102, r24	; 0x800102 <__data_end>
     9e8:	8f e5       	ldi	r24, 0x5F	; 95
     9ea:	9a ee       	ldi	r25, 0xEA	; 234
     9ec:	01 97       	sbiw	r24, 0x01	; 1
     9ee:	f1 f7       	brne	.-4      	; 0x9ec <__stack+0xed>
     9f0:	00 c0       	rjmp	.+0      	; 0x9f2 <__stack+0xf3>
     9f2:	00 00       	nop
     9f4:	1b c0       	rjmp	.+54     	; 0xa2c <__stack+0x12d>
					_delay_ms(15);
				}
				
				else if ((PINC & (1 << PINC5)))
     9f6:	35 9b       	sbis	0x06, 5	; 6
     9f8:	0a c0       	rjmp	.+20     	; 0xa0e <__stack+0x10f>
				{
					receivedChar = 'B';
     9fa:	82 e4       	ldi	r24, 0x42	; 66
     9fc:	80 93 02 01 	sts	0x0102, r24	; 0x800102 <__data_end>
     a00:	8f e5       	ldi	r24, 0x5F	; 95
     a02:	9a ee       	ldi	r25, 0xEA	; 234
     a04:	01 97       	sbiw	r24, 0x01	; 1
     a06:	f1 f7       	brne	.-4      	; 0xa04 <__stack+0x105>
     a08:	00 c0       	rjmp	.+0      	; 0xa0a <__stack+0x10b>
     a0a:	00 00       	nop
     a0c:	0f c0       	rjmp	.+30     	; 0xa2c <__stack+0x12d>
					_delay_ms(15);
				}
				
				else if ((PINB & (1 << PINB0))==0)
     a0e:	18 99       	sbic	0x03, 0	; 3
     a10:	0d c0       	rjmp	.+26     	; 0xa2c <__stack+0x12d>
				{
					receivedChar = 'R';
     a12:	82 e5       	ldi	r24, 0x52	; 82
     a14:	80 93 02 01 	sts	0x0102, r24	; 0x800102 <__data_end>
     a18:	09 c0       	rjmp	.+18     	; 0xa2c <__stack+0x12d>
     a1a:	9f ef       	ldi	r25, 0xFF	; 255
     a1c:	26 e7       	ldi	r18, 0x76	; 118
     a1e:	81 e0       	ldi	r24, 0x01	; 1
     a20:	91 50       	subi	r25, 0x01	; 1
     a22:	20 40       	sbci	r18, 0x00	; 0
     a24:	80 40       	sbci	r24, 0x00	; 0
     a26:	e1 f7       	brne	.-8      	; 0xa20 <__stack+0x121>
     a28:	00 c0       	rjmp	.+0      	; 0xa2a <__stack+0x12b>
     a2a:	00 00       	nop
				}
			
				while ((PINB & (1 << PINB0)) == 0)   //While para evitar sumas indebidas
     a2c:	18 9b       	sbis	0x03, 0	; 3
     a2e:	f5 cf       	rjmp	.-22     	; 0xa1a <__stack+0x11b>
				{
					_delay_ms(30);    //antirrebote
				}
			
				switch(receivedChar)   //Switch para elegir que se desea
     a30:	80 91 02 01 	lds	r24, 0x0102	; 0x800102 <__data_end>
     a34:	82 34       	cpi	r24, 0x42	; 66
     a36:	39 f0       	breq	.+14     	; 0xa46 <__stack+0x147>
     a38:	82 35       	cpi	r24, 0x52	; 82
     a3a:	21 f1       	breq	.+72     	; 0xa84 <__stack+0x185>
     a3c:	81 34       	cpi	r24, 0x41	; 65
     a3e:	11 f0       	breq	.+4      	; 0xa44 <__stack+0x145>
     a40:	0c 94 37 0d 	jmp	0x1a6e	; 0x1a6e <__stack+0x116f>
     a44:	10 c0       	rjmp	.+32     	; 0xa66 <__stack+0x167>
				{
					case 'B':
					codo = codo + 10;
     a46:	80 91 0b 01 	lds	r24, 0x010B	; 0x80010b <codo>
     a4a:	90 91 0c 01 	lds	r25, 0x010C	; 0x80010c <codo+0x1>
     a4e:	0a 96       	adiw	r24, 0x0a	; 10
     a50:	90 93 0c 01 	sts	0x010C, r25	; 0x80010c <codo+0x1>
     a54:	80 93 0b 01 	sts	0x010B, r24	; 0x80010b <codo>
					convertServo(codo, channelB);
     a58:	62 e0       	ldi	r22, 0x02	; 2
     a5a:	0e 94 67 0e 	call	0x1cce	; 0x1cce <convertServo>
					receivedChar = 0;
     a5e:	10 92 02 01 	sts	0x0102, r1	; 0x800102 <__data_end>
				
					break;
     a62:	0c 94 37 0d 	jmp	0x1a6e	; 0x1a6e <__stack+0x116f>
				
					case 'A':
					codo = codo - 10;
     a66:	80 91 0b 01 	lds	r24, 0x010B	; 0x80010b <codo>
     a6a:	90 91 0c 01 	lds	r25, 0x010C	; 0x80010c <codo+0x1>
     a6e:	0a 97       	sbiw	r24, 0x0a	; 10
     a70:	90 93 0c 01 	sts	0x010C, r25	; 0x80010c <codo+0x1>
     a74:	80 93 0b 01 	sts	0x010B, r24	; 0x80010b <codo>
					convertServo(codo, channelB);
     a78:	62 e0       	ldi	r22, 0x02	; 2
     a7a:	0e 94 67 0e 	call	0x1cce	; 0x1cce <convertServo>
					receivedChar = 0;
     a7e:	10 92 02 01 	sts	0x0102, r1	; 0x800102 <__data_end>
				
					break;
     a82:	f5 c7       	rjmp	.+4074   	; 0x1a6e <__stack+0x116f>
				
					case 'R':
					activa ++;
     a84:	80 91 21 01 	lds	r24, 0x0121	; 0x800121 <activa>
     a88:	90 91 22 01 	lds	r25, 0x0122	; 0x800122 <activa+0x1>
     a8c:	01 96       	adiw	r24, 0x01	; 1
     a8e:	90 93 22 01 	sts	0x0122, r25	; 0x800122 <activa+0x1>
     a92:	80 93 21 01 	sts	0x0121, r24	; 0x800121 <activa>
					codo1 = codo;
     a96:	80 91 0b 01 	lds	r24, 0x010B	; 0x80010b <codo>
     a9a:	90 91 0c 01 	lds	r25, 0x010C	; 0x80010c <codo+0x1>
     a9e:	90 93 0a 01 	sts	0x010A, r25	; 0x80010a <codo1+0x1>
     aa2:	80 93 09 01 	sts	0x0109, r24	; 0x800109 <codo1>
					receivedChar = 0;
     aa6:	10 92 02 01 	sts	0x0102, r1	; 0x800102 <__data_end>
					break;
     aaa:	e1 c7       	rjmp	.+4034   	; 0x1a6e <__stack+0x116f>
			
			}
		
		}
		
		else if (activa == 6){
     aac:	86 30       	cpi	r24, 0x06	; 6
     aae:	91 05       	cpc	r25, r1
     ab0:	09 f0       	breq	.+2      	; 0xab4 <__stack+0x1b5>
     ab2:	7b c0       	rjmp	.+246    	; 0xbaa <__stack+0x2ab>
			if(receivedChar != 0 || (PINC & (1 << PINC4)) || (PINC & (1 << PINC5)) || (PINB & (1 << PINB0)) == 0){      //Si la variable que hay en USART es diferente de cero
     ab4:	80 91 02 01 	lds	r24, 0x0102	; 0x800102 <__data_end>
     ab8:	81 11       	cpse	r24, r1
     aba:	06 c0       	rjmp	.+12     	; 0xac8 <__stack+0x1c9>
     abc:	34 99       	sbic	0x06, 4	; 6
     abe:	04 c0       	rjmp	.+8      	; 0xac8 <__stack+0x1c9>
     ac0:	35 99       	sbic	0x06, 5	; 6
     ac2:	02 c0       	rjmp	.+4      	; 0xac8 <__stack+0x1c9>
     ac4:	18 99       	sbic	0x03, 0	; 3
     ac6:	d3 c7       	rjmp	.+4006   	; 0x1a6e <__stack+0x116f>
				
				
				if (codo1 >= 255){
     ac8:	80 91 09 01 	lds	r24, 0x0109	; 0x800109 <codo1>
     acc:	90 91 0a 01 	lds	r25, 0x010A	; 0x80010a <codo1+0x1>
     ad0:	8f 3f       	cpi	r24, 0xFF	; 255
     ad2:	91 05       	cpc	r25, r1
     ad4:	3c f0       	brlt	.+14     	; 0xae4 <__stack+0x1e5>
					codo1 = 254;
     ad6:	8e ef       	ldi	r24, 0xFE	; 254
     ad8:	90 e0       	ldi	r25, 0x00	; 0
     ada:	90 93 0a 01 	sts	0x010A, r25	; 0x80010a <codo1+0x1>
     ade:	80 93 09 01 	sts	0x0109, r24	; 0x800109 <codo1>
     ae2:	06 c0       	rjmp	.+12     	; 0xaf0 <__stack+0x1f1>
				}
				else if (codo1 <= 1){
     ae4:	02 97       	sbiw	r24, 0x02	; 2
     ae6:	24 f4       	brge	.+8      	; 0xaf0 <__stack+0x1f1>
					codo1 = 0;
     ae8:	10 92 0a 01 	sts	0x010A, r1	; 0x80010a <codo1+0x1>
     aec:	10 92 09 01 	sts	0x0109, r1	; 0x800109 <codo1>
				}
				
				if ((PINC & (1 << PINC4)))
     af0:	34 9b       	sbis	0x06, 4	; 6
     af2:	0a c0       	rjmp	.+20     	; 0xb08 <__stack+0x209>
				{
					receivedChar = 'A';
     af4:	81 e4       	ldi	r24, 0x41	; 65
     af6:	80 93 02 01 	sts	0x0102, r24	; 0x800102 <__data_end>
     afa:	8f e5       	ldi	r24, 0x5F	; 95
     afc:	9a ee       	ldi	r25, 0xEA	; 234
     afe:	01 97       	sbiw	r24, 0x01	; 1
     b00:	f1 f7       	brne	.-4      	; 0xafe <__stack+0x1ff>
     b02:	00 c0       	rjmp	.+0      	; 0xb04 <__stack+0x205>
     b04:	00 00       	nop
     b06:	1b c0       	rjmp	.+54     	; 0xb3e <__stack+0x23f>
					_delay_ms(15);
				}
				
				else if ((PINC & (1 << PINC5)))
     b08:	35 9b       	sbis	0x06, 5	; 6
     b0a:	0a c0       	rjmp	.+20     	; 0xb20 <__stack+0x221>
				{
					receivedChar = 'B';
     b0c:	82 e4       	ldi	r24, 0x42	; 66
     b0e:	80 93 02 01 	sts	0x0102, r24	; 0x800102 <__data_end>
     b12:	8f e5       	ldi	r24, 0x5F	; 95
     b14:	9a ee       	ldi	r25, 0xEA	; 234
     b16:	01 97       	sbiw	r24, 0x01	; 1
     b18:	f1 f7       	brne	.-4      	; 0xb16 <__stack+0x217>
     b1a:	00 c0       	rjmp	.+0      	; 0xb1c <__stack+0x21d>
     b1c:	00 00       	nop
     b1e:	0f c0       	rjmp	.+30     	; 0xb3e <__stack+0x23f>
					_delay_ms(15);
				}
				
				else if ((PINB & (1 << PINB0))==0)
     b20:	18 99       	sbic	0x03, 0	; 3
     b22:	0d c0       	rjmp	.+26     	; 0xb3e <__stack+0x23f>
				{
					receivedChar = 'R';
     b24:	82 e5       	ldi	r24, 0x52	; 82
     b26:	80 93 02 01 	sts	0x0102, r24	; 0x800102 <__data_end>
     b2a:	09 c0       	rjmp	.+18     	; 0xb3e <__stack+0x23f>
     b2c:	9f ef       	ldi	r25, 0xFF	; 255
     b2e:	26 e7       	ldi	r18, 0x76	; 118
     b30:	81 e0       	ldi	r24, 0x01	; 1
     b32:	91 50       	subi	r25, 0x01	; 1
     b34:	20 40       	sbci	r18, 0x00	; 0
     b36:	80 40       	sbci	r24, 0x00	; 0
     b38:	e1 f7       	brne	.-8      	; 0xb32 <__stack+0x233>
     b3a:	00 c0       	rjmp	.+0      	; 0xb3c <__stack+0x23d>
     b3c:	00 00       	nop
				}
				
					while ((PINB & (1 << PINB0)) == 0)   //While para evitar sumas indebidas
     b3e:	18 9b       	sbis	0x03, 0	; 3
     b40:	f5 cf       	rjmp	.-22     	; 0xb2c <__stack+0x22d>
					{
						_delay_ms(30);    //antirrebote
					}
					
				switch(receivedChar)   //Switch para elegir que se desea
     b42:	80 91 02 01 	lds	r24, 0x0102	; 0x800102 <__data_end>
     b46:	82 34       	cpi	r24, 0x42	; 66
     b48:	31 f0       	breq	.+12     	; 0xb56 <__stack+0x257>
     b4a:	82 35       	cpi	r24, 0x52	; 82
     b4c:	11 f1       	breq	.+68     	; 0xb92 <__stack+0x293>
     b4e:	81 34       	cpi	r24, 0x41	; 65
     b50:	09 f0       	breq	.+2      	; 0xb54 <__stack+0x255>
     b52:	8d c7       	rjmp	.+3866   	; 0x1a6e <__stack+0x116f>
     b54:	0f c0       	rjmp	.+30     	; 0xb74 <__stack+0x275>
				{
					case 'B':
					codo1 = codo1 + 10;
     b56:	80 91 09 01 	lds	r24, 0x0109	; 0x800109 <codo1>
     b5a:	90 91 0a 01 	lds	r25, 0x010A	; 0x80010a <codo1+0x1>
     b5e:	0a 96       	adiw	r24, 0x0a	; 10
     b60:	90 93 0a 01 	sts	0x010A, r25	; 0x80010a <codo1+0x1>
     b64:	80 93 09 01 	sts	0x0109, r24	; 0x800109 <codo1>
					convertServo(codo1, channelB);
     b68:	62 e0       	ldi	r22, 0x02	; 2
     b6a:	0e 94 67 0e 	call	0x1cce	; 0x1cce <convertServo>
					receivedChar = 0;
     b6e:	10 92 02 01 	sts	0x0102, r1	; 0x800102 <__data_end>
					
					break;
     b72:	7d c7       	rjmp	.+3834   	; 0x1a6e <__stack+0x116f>
					
					case 'A':
					codo1 = codo1 - 10;
     b74:	80 91 09 01 	lds	r24, 0x0109	; 0x800109 <codo1>
     b78:	90 91 0a 01 	lds	r25, 0x010A	; 0x80010a <codo1+0x1>
     b7c:	0a 97       	sbiw	r24, 0x0a	; 10
     b7e:	90 93 0a 01 	sts	0x010A, r25	; 0x80010a <codo1+0x1>
     b82:	80 93 09 01 	sts	0x0109, r24	; 0x800109 <codo1>
					convertServo(codo1, channelB);
     b86:	62 e0       	ldi	r22, 0x02	; 2
     b88:	0e 94 67 0e 	call	0x1cce	; 0x1cce <convertServo>
					receivedChar = 0;
     b8c:	10 92 02 01 	sts	0x0102, r1	; 0x800102 <__data_end>
					
					break;
     b90:	6e c7       	rjmp	.+3804   	; 0x1a6e <__stack+0x116f>
					
					case 'R':
					activa ++;
     b92:	80 91 21 01 	lds	r24, 0x0121	; 0x800121 <activa>
     b96:	90 91 22 01 	lds	r25, 0x0122	; 0x800122 <activa+0x1>
     b9a:	01 96       	adiw	r24, 0x01	; 1
     b9c:	90 93 22 01 	sts	0x0122, r25	; 0x800122 <activa+0x1>
     ba0:	80 93 21 01 	sts	0x0121, r24	; 0x800121 <activa>
					receivedChar = 0;
     ba4:	10 92 02 01 	sts	0x0102, r1	; 0x800102 <__data_end>
					break;
     ba8:	62 c7       	rjmp	.+3780   	; 0x1a6e <__stack+0x116f>
				
			}
			
		}
		
		else if (activa == 7){
     baa:	87 30       	cpi	r24, 0x07	; 7
     bac:	91 05       	cpc	r25, r1
     bae:	09 f0       	breq	.+2      	; 0xbb2 <__stack+0x2b3>
     bb0:	89 c0       	rjmp	.+274    	; 0xcc4 <__stack+0x3c5>
			if(receivedChar != 0 || (PINC & (1 << PINC4)) || (PINC & (1 << PINC5)) || (PINB & (1 << PINB0)) == 0){      //Si la variable que hay en USART es diferente de cero
     bb2:	80 91 02 01 	lds	r24, 0x0102	; 0x800102 <__data_end>
     bb6:	81 11       	cpse	r24, r1
     bb8:	06 c0       	rjmp	.+12     	; 0xbc6 <__stack+0x2c7>
     bba:	34 99       	sbic	0x06, 4	; 6
     bbc:	04 c0       	rjmp	.+8      	; 0xbc6 <__stack+0x2c7>
     bbe:	35 99       	sbic	0x06, 5	; 6
     bc0:	02 c0       	rjmp	.+4      	; 0xbc6 <__stack+0x2c7>
     bc2:	18 99       	sbic	0x03, 0	; 3
     bc4:	54 c7       	rjmp	.+3752   	; 0x1a6e <__stack+0x116f>
				
				
				if (rota >= 255){
     bc6:	80 91 07 01 	lds	r24, 0x0107	; 0x800107 <rota>
     bca:	90 91 08 01 	lds	r25, 0x0108	; 0x800108 <rota+0x1>
     bce:	8f 3f       	cpi	r24, 0xFF	; 255
     bd0:	91 05       	cpc	r25, r1
     bd2:	3c f0       	brlt	.+14     	; 0xbe2 <__stack+0x2e3>
					rota = 254;
     bd4:	8e ef       	ldi	r24, 0xFE	; 254
     bd6:	90 e0       	ldi	r25, 0x00	; 0
     bd8:	90 93 08 01 	sts	0x0108, r25	; 0x800108 <rota+0x1>
     bdc:	80 93 07 01 	sts	0x0107, r24	; 0x800107 <rota>
     be0:	06 c0       	rjmp	.+12     	; 0xbee <__stack+0x2ef>
				}
				else if (rota <= 1){
     be2:	02 97       	sbiw	r24, 0x02	; 2
     be4:	24 f4       	brge	.+8      	; 0xbee <__stack+0x2ef>
					rota = 0;
     be6:	10 92 08 01 	sts	0x0108, r1	; 0x800108 <rota+0x1>
     bea:	10 92 07 01 	sts	0x0107, r1	; 0x800107 <rota>
				}
				
				if ((PINC & (1 << PINC4)))
     bee:	34 9b       	sbis	0x06, 4	; 6
     bf0:	0d c0       	rjmp	.+26     	; 0xc0c <__stack+0x30d>
				{
					receivedChar = 'A';
     bf2:	81 e4       	ldi	r24, 0x41	; 65
     bf4:	80 93 02 01 	sts	0x0102, r24	; 0x800102 <__data_end>
     bf8:	9f e7       	ldi	r25, 0x7F	; 127
     bfa:	28 e3       	ldi	r18, 0x38	; 56
     bfc:	81 e0       	ldi	r24, 0x01	; 1
     bfe:	91 50       	subi	r25, 0x01	; 1
     c00:	20 40       	sbci	r18, 0x00	; 0
     c02:	80 40       	sbci	r24, 0x00	; 0
     c04:	e1 f7       	brne	.-8      	; 0xbfe <__stack+0x2ff>
     c06:	00 c0       	rjmp	.+0      	; 0xc08 <__stack+0x309>
     c08:	00 00       	nop
     c0a:	1e c0       	rjmp	.+60     	; 0xc48 <__stack+0x349>
					_delay_ms(25);
				}
				
				else if ((PINC & (1 << PINC5)))
     c0c:	35 9b       	sbis	0x06, 5	; 6
     c0e:	0d c0       	rjmp	.+26     	; 0xc2a <__stack+0x32b>
				{
					receivedChar = 'B';
     c10:	82 e4       	ldi	r24, 0x42	; 66
     c12:	80 93 02 01 	sts	0x0102, r24	; 0x800102 <__data_end>
     c16:	9f e7       	ldi	r25, 0x7F	; 127
     c18:	28 e3       	ldi	r18, 0x38	; 56
     c1a:	81 e0       	ldi	r24, 0x01	; 1
     c1c:	91 50       	subi	r25, 0x01	; 1
     c1e:	20 40       	sbci	r18, 0x00	; 0
     c20:	80 40       	sbci	r24, 0x00	; 0
     c22:	e1 f7       	brne	.-8      	; 0xc1c <__stack+0x31d>
     c24:	00 c0       	rjmp	.+0      	; 0xc26 <__stack+0x327>
     c26:	00 00       	nop
     c28:	0f c0       	rjmp	.+30     	; 0xc48 <__stack+0x349>
					_delay_ms(25);
				}
				
				else if ((PINB & (1 << PINB0))==0)
     c2a:	18 99       	sbic	0x03, 0	; 3
     c2c:	0d c0       	rjmp	.+26     	; 0xc48 <__stack+0x349>
				{
					receivedChar = 'R';
     c2e:	82 e5       	ldi	r24, 0x52	; 82
     c30:	80 93 02 01 	sts	0x0102, r24	; 0x800102 <__data_end>
     c34:	09 c0       	rjmp	.+18     	; 0xc48 <__stack+0x349>
     c36:	9f ef       	ldi	r25, 0xFF	; 255
     c38:	26 e7       	ldi	r18, 0x76	; 118
     c3a:	81 e0       	ldi	r24, 0x01	; 1
     c3c:	91 50       	subi	r25, 0x01	; 1
     c3e:	20 40       	sbci	r18, 0x00	; 0
     c40:	80 40       	sbci	r24, 0x00	; 0
     c42:	e1 f7       	brne	.-8      	; 0xc3c <__stack+0x33d>
     c44:	00 c0       	rjmp	.+0      	; 0xc46 <__stack+0x347>
     c46:	00 00       	nop
				}
				
					while ((PINB & (1 << PINB0)) == 0)   //While para evitar sumas indebidas
     c48:	18 9b       	sbis	0x03, 0	; 3
     c4a:	f5 cf       	rjmp	.-22     	; 0xc36 <__stack+0x337>
					{
						_delay_ms(30);    //antirrebote
					}
				
				switch(receivedChar)   //Switch para elegir que se desea
     c4c:	80 91 02 01 	lds	r24, 0x0102	; 0x800102 <__data_end>
     c50:	82 34       	cpi	r24, 0x42	; 66
     c52:	31 f0       	breq	.+12     	; 0xc60 <__stack+0x361>
     c54:	82 35       	cpi	r24, 0x52	; 82
     c56:	11 f1       	breq	.+68     	; 0xc9c <__stack+0x39d>
     c58:	81 34       	cpi	r24, 0x41	; 65
     c5a:	09 f0       	breq	.+2      	; 0xc5e <__stack+0x35f>
     c5c:	08 c7       	rjmp	.+3600   	; 0x1a6e <__stack+0x116f>
     c5e:	0f c0       	rjmp	.+30     	; 0xc7e <__stack+0x37f>
				{
					case 'B':
					rota = rota + 5;
     c60:	80 91 07 01 	lds	r24, 0x0107	; 0x800107 <rota>
     c64:	90 91 08 01 	lds	r25, 0x0108	; 0x800108 <rota+0x1>
     c68:	05 96       	adiw	r24, 0x05	; 5
     c6a:	90 93 08 01 	sts	0x0108, r25	; 0x800108 <rota+0x1>
     c6e:	80 93 07 01 	sts	0x0107, r24	; 0x800107 <rota>
					convertServo2(rota, channel2B);
     c72:	62 e0       	ldi	r22, 0x02	; 2
     c74:	0e 94 b0 0e 	call	0x1d60	; 0x1d60 <convertServo2>
					receivedChar = 0;
     c78:	10 92 02 01 	sts	0x0102, r1	; 0x800102 <__data_end>
					
					break;
     c7c:	f8 c6       	rjmp	.+3568   	; 0x1a6e <__stack+0x116f>
					
					case 'A':
					rota = rota - 5;
     c7e:	80 91 07 01 	lds	r24, 0x0107	; 0x800107 <rota>
     c82:	90 91 08 01 	lds	r25, 0x0108	; 0x800108 <rota+0x1>
     c86:	05 97       	sbiw	r24, 0x05	; 5
     c88:	90 93 08 01 	sts	0x0108, r25	; 0x800108 <rota+0x1>
     c8c:	80 93 07 01 	sts	0x0107, r24	; 0x800107 <rota>
					convertServo2(rota, channel2B);
     c90:	62 e0       	ldi	r22, 0x02	; 2
     c92:	0e 94 b0 0e 	call	0x1d60	; 0x1d60 <convertServo2>
					receivedChar = 0;
     c96:	10 92 02 01 	sts	0x0102, r1	; 0x800102 <__data_end>
					
					break;
     c9a:	e9 c6       	rjmp	.+3538   	; 0x1a6e <__stack+0x116f>
					
					case 'R':
					activa ++;
     c9c:	80 91 21 01 	lds	r24, 0x0121	; 0x800121 <activa>
     ca0:	90 91 22 01 	lds	r25, 0x0122	; 0x800122 <activa+0x1>
     ca4:	01 96       	adiw	r24, 0x01	; 1
     ca6:	90 93 22 01 	sts	0x0122, r25	; 0x800122 <activa+0x1>
     caa:	80 93 21 01 	sts	0x0121, r24	; 0x800121 <activa>
					rota1 = rota;
     cae:	80 91 07 01 	lds	r24, 0x0107	; 0x800107 <rota>
     cb2:	90 91 08 01 	lds	r25, 0x0108	; 0x800108 <rota+0x1>
     cb6:	90 93 06 01 	sts	0x0106, r25	; 0x800106 <rota1+0x1>
     cba:	80 93 05 01 	sts	0x0105, r24	; 0x800105 <rota1>
					receivedChar = 0;
     cbe:	10 92 02 01 	sts	0x0102, r1	; 0x800102 <__data_end>
					break;
     cc2:	d5 c6       	rjmp	.+3498   	; 0x1a6e <__stack+0x116f>
				
			}
			
		}
		
		else if (activa == 8){
     cc4:	88 30       	cpi	r24, 0x08	; 8
     cc6:	91 05       	cpc	r25, r1
     cc8:	09 f0       	breq	.+2      	; 0xccc <__stack+0x3cd>
     cca:	81 c0       	rjmp	.+258    	; 0xdce <__stack+0x4cf>
			if(receivedChar != 0 || (PINC & (1 << PINC4)) || (PINC & (1 << PINC5)) || (PINB & (1 << PINB0)) == 0){      //Si la variable que hay en USART es diferente de cero
     ccc:	80 91 02 01 	lds	r24, 0x0102	; 0x800102 <__data_end>
     cd0:	81 11       	cpse	r24, r1
     cd2:	06 c0       	rjmp	.+12     	; 0xce0 <__stack+0x3e1>
     cd4:	34 99       	sbic	0x06, 4	; 6
     cd6:	04 c0       	rjmp	.+8      	; 0xce0 <__stack+0x3e1>
     cd8:	35 99       	sbic	0x06, 5	; 6
     cda:	02 c0       	rjmp	.+4      	; 0xce0 <__stack+0x3e1>
     cdc:	18 99       	sbic	0x03, 0	; 3
     cde:	c7 c6       	rjmp	.+3470   	; 0x1a6e <__stack+0x116f>
				
				
				if (rota1 >= 255){
     ce0:	80 91 05 01 	lds	r24, 0x0105	; 0x800105 <rota1>
     ce4:	90 91 06 01 	lds	r25, 0x0106	; 0x800106 <rota1+0x1>
     ce8:	8f 3f       	cpi	r24, 0xFF	; 255
     cea:	91 05       	cpc	r25, r1
     cec:	3c f0       	brlt	.+14     	; 0xcfc <__stack+0x3fd>
					rota1 = 254;
     cee:	8e ef       	ldi	r24, 0xFE	; 254
     cf0:	90 e0       	ldi	r25, 0x00	; 0
     cf2:	90 93 06 01 	sts	0x0106, r25	; 0x800106 <rota1+0x1>
     cf6:	80 93 05 01 	sts	0x0105, r24	; 0x800105 <rota1>
     cfa:	06 c0       	rjmp	.+12     	; 0xd08 <__stack+0x409>
				}
				else if (rota1 <= 1){
     cfc:	02 97       	sbiw	r24, 0x02	; 2
     cfe:	24 f4       	brge	.+8      	; 0xd08 <__stack+0x409>
					rota1 = 0;
     d00:	10 92 06 01 	sts	0x0106, r1	; 0x800106 <rota1+0x1>
     d04:	10 92 05 01 	sts	0x0105, r1	; 0x800105 <rota1>
				}
				
				if ((PINC & (1 << PINC4)))
     d08:	34 9b       	sbis	0x06, 4	; 6
     d0a:	0d c0       	rjmp	.+26     	; 0xd26 <__stack+0x427>
				{
					receivedChar = 'A';
     d0c:	81 e4       	ldi	r24, 0x41	; 65
     d0e:	80 93 02 01 	sts	0x0102, r24	; 0x800102 <__data_end>
     d12:	9f e7       	ldi	r25, 0x7F	; 127
     d14:	28 e3       	ldi	r18, 0x38	; 56
     d16:	81 e0       	ldi	r24, 0x01	; 1
     d18:	91 50       	subi	r25, 0x01	; 1
     d1a:	20 40       	sbci	r18, 0x00	; 0
     d1c:	80 40       	sbci	r24, 0x00	; 0
     d1e:	e1 f7       	brne	.-8      	; 0xd18 <__stack+0x419>
     d20:	00 c0       	rjmp	.+0      	; 0xd22 <__stack+0x423>
     d22:	00 00       	nop
     d24:	1e c0       	rjmp	.+60     	; 0xd62 <__stack+0x463>
					_delay_ms(25);
				}
				
				else if ((PINC & (1 << PINC5)))
     d26:	35 9b       	sbis	0x06, 5	; 6
     d28:	0d c0       	rjmp	.+26     	; 0xd44 <__stack+0x445>
				{
					receivedChar = 'B';
     d2a:	82 e4       	ldi	r24, 0x42	; 66
     d2c:	80 93 02 01 	sts	0x0102, r24	; 0x800102 <__data_end>
     d30:	9f e7       	ldi	r25, 0x7F	; 127
     d32:	28 e3       	ldi	r18, 0x38	; 56
     d34:	81 e0       	ldi	r24, 0x01	; 1
     d36:	91 50       	subi	r25, 0x01	; 1
     d38:	20 40       	sbci	r18, 0x00	; 0
     d3a:	80 40       	sbci	r24, 0x00	; 0
     d3c:	e1 f7       	brne	.-8      	; 0xd36 <__stack+0x437>
     d3e:	00 c0       	rjmp	.+0      	; 0xd40 <__stack+0x441>
     d40:	00 00       	nop
     d42:	0f c0       	rjmp	.+30     	; 0xd62 <__stack+0x463>
					_delay_ms(25);
				}
				
				else if ((PINB & (1 << PINB0))==0)
     d44:	18 99       	sbic	0x03, 0	; 3
     d46:	0d c0       	rjmp	.+26     	; 0xd62 <__stack+0x463>
				{
					receivedChar = 'R';
     d48:	82 e5       	ldi	r24, 0x52	; 82
     d4a:	80 93 02 01 	sts	0x0102, r24	; 0x800102 <__data_end>
     d4e:	09 c0       	rjmp	.+18     	; 0xd62 <__stack+0x463>
     d50:	9f ef       	ldi	r25, 0xFF	; 255
     d52:	26 e7       	ldi	r18, 0x76	; 118
     d54:	81 e0       	ldi	r24, 0x01	; 1
     d56:	91 50       	subi	r25, 0x01	; 1
     d58:	20 40       	sbci	r18, 0x00	; 0
     d5a:	80 40       	sbci	r24, 0x00	; 0
     d5c:	e1 f7       	brne	.-8      	; 0xd56 <__stack+0x457>
     d5e:	00 c0       	rjmp	.+0      	; 0xd60 <__stack+0x461>
     d60:	00 00       	nop
				}
				
					while ((PINB & (1 << PINB0)) == 0)   //While para evitar sumas indebidas
     d62:	18 9b       	sbis	0x03, 0	; 3
     d64:	f5 cf       	rjmp	.-22     	; 0xd50 <__stack+0x451>
					{
						_delay_ms(30);    //antirrebote
					}
				
				switch(receivedChar)   //Switch para elegir que se desea
     d66:	80 91 02 01 	lds	r24, 0x0102	; 0x800102 <__data_end>
     d6a:	82 34       	cpi	r24, 0x42	; 66
     d6c:	31 f0       	breq	.+12     	; 0xd7a <__stack+0x47b>
     d6e:	82 35       	cpi	r24, 0x52	; 82
     d70:	11 f1       	breq	.+68     	; 0xdb6 <__stack+0x4b7>
     d72:	81 34       	cpi	r24, 0x41	; 65
     d74:	09 f0       	breq	.+2      	; 0xd78 <__stack+0x479>
     d76:	7b c6       	rjmp	.+3318   	; 0x1a6e <__stack+0x116f>
     d78:	0f c0       	rjmp	.+30     	; 0xd98 <__stack+0x499>
				{
					case 'B':
					rota1 = rota1 + 5;
     d7a:	80 91 05 01 	lds	r24, 0x0105	; 0x800105 <rota1>
     d7e:	90 91 06 01 	lds	r25, 0x0106	; 0x800106 <rota1+0x1>
     d82:	05 96       	adiw	r24, 0x05	; 5
     d84:	90 93 06 01 	sts	0x0106, r25	; 0x800106 <rota1+0x1>
     d88:	80 93 05 01 	sts	0x0105, r24	; 0x800105 <rota1>
					convertServo2(rota1, channel2B);
     d8c:	62 e0       	ldi	r22, 0x02	; 2
     d8e:	0e 94 b0 0e 	call	0x1d60	; 0x1d60 <convertServo2>
					receivedChar = 0;
     d92:	10 92 02 01 	sts	0x0102, r1	; 0x800102 <__data_end>
					
					break;
     d96:	6b c6       	rjmp	.+3286   	; 0x1a6e <__stack+0x116f>
					
					case 'A':
					rota1 = rota1 - 5;
     d98:	80 91 05 01 	lds	r24, 0x0105	; 0x800105 <rota1>
     d9c:	90 91 06 01 	lds	r25, 0x0106	; 0x800106 <rota1+0x1>
     da0:	05 97       	sbiw	r24, 0x05	; 5
     da2:	90 93 06 01 	sts	0x0106, r25	; 0x800106 <rota1+0x1>
     da6:	80 93 05 01 	sts	0x0105, r24	; 0x800105 <rota1>
					convertServo2(rota1, channel2B);
     daa:	62 e0       	ldi	r22, 0x02	; 2
     dac:	0e 94 b0 0e 	call	0x1d60	; 0x1d60 <convertServo2>
					receivedChar = 0;
     db0:	10 92 02 01 	sts	0x0102, r1	; 0x800102 <__data_end>
					
					break;
     db4:	5c c6       	rjmp	.+3256   	; 0x1a6e <__stack+0x116f>
					
					case 'R':
					activa ++;
     db6:	80 91 21 01 	lds	r24, 0x0121	; 0x800121 <activa>
     dba:	90 91 22 01 	lds	r25, 0x0122	; 0x800122 <activa+0x1>
     dbe:	01 96       	adiw	r24, 0x01	; 1
     dc0:	90 93 22 01 	sts	0x0122, r25	; 0x800122 <activa+0x1>
     dc4:	80 93 21 01 	sts	0x0121, r24	; 0x800121 <activa>
					receivedChar = 0;
     dc8:	10 92 02 01 	sts	0x0102, r1	; 0x800102 <__data_end>
					break;
     dcc:	50 c6       	rjmp	.+3232   	; 0x1a6e <__stack+0x116f>
				
			}
			
		}
		
		else if (activa == 9){
     dce:	09 97       	sbiw	r24, 0x09	; 9
     dd0:	09 f0       	breq	.+2      	; 0xdd4 <__stack+0x4d5>
     dd2:	4d c6       	rjmp	.+3226   	; 0x1a6e <__stack+0x116f>
			
			if(receivedChar != 0 || (PINB & (1 << PINB0)) == 0){ 
     dd4:	80 91 02 01 	lds	r24, 0x0102	; 0x800102 <__data_end>
     dd8:	81 11       	cpse	r24, r1
     dda:	02 c0       	rjmp	.+4      	; 0xde0 <__stack+0x4e1>
     ddc:	18 99       	sbic	0x03, 0	; 3
     dde:	28 c0       	rjmp	.+80     	; 0xe30 <__stack+0x531>
				activa2 = 0;   //Reiniciar todas las variables 
     de0:	10 92 20 01 	sts	0x0120, r1	; 0x800120 <activa2+0x1>
     de4:	10 92 1f 01 	sts	0x011F, r1	; 0x80011f <activa2>
				activa = 0;
     de8:	10 92 22 01 	sts	0x0122, r1	; 0x800122 <activa+0x1>
     dec:	10 92 21 01 	sts	0x0121, r1	; 0x800121 <activa>
				garra = 0;
     df0:	10 92 14 01 	sts	0x0114, r1	; 0x800114 <garra+0x1>
     df4:	10 92 13 01 	sts	0x0113, r1	; 0x800113 <garra>
				garra1 = 0;
     df8:	10 92 12 01 	sts	0x0112, r1	; 0x800112 <garra1+0x1>
     dfc:	10 92 11 01 	sts	0x0111, r1	; 0x800111 <garra1>
				codo = 0;
     e00:	10 92 0c 01 	sts	0x010C, r1	; 0x80010c <codo+0x1>
     e04:	10 92 0b 01 	sts	0x010B, r1	; 0x80010b <codo>
				codo1 = 0;
     e08:	10 92 0a 01 	sts	0x010A, r1	; 0x80010a <codo1+0x1>
     e0c:	10 92 09 01 	sts	0x0109, r1	; 0x800109 <codo1>
				brazo = 0;
     e10:	10 92 10 01 	sts	0x0110, r1	; 0x800110 <brazo+0x1>
     e14:	10 92 0f 01 	sts	0x010F, r1	; 0x80010f <brazo>
				brazo1 = 0;
     e18:	10 92 0e 01 	sts	0x010E, r1	; 0x80010e <brazo1+0x1>
     e1c:	10 92 0d 01 	sts	0x010D, r1	; 0x80010d <brazo1>
				rota1 = 0;
     e20:	10 92 06 01 	sts	0x0106, r1	; 0x800106 <rota1+0x1>
     e24:	10 92 05 01 	sts	0x0105, r1	; 0x800105 <rota1>
				rota = 0;
     e28:	10 92 08 01 	sts	0x0108, r1	; 0x800108 <rota+0x1>
     e2c:	10 92 07 01 	sts	0x0107, r1	; 0x800107 <rota>
				
			 }
				
			         //INICIO DE SECUENCIA AUTOMATICA
			if (garra > garra1){
     e30:	80 91 13 01 	lds	r24, 0x0113	; 0x800113 <garra>
     e34:	90 91 14 01 	lds	r25, 0x0114	; 0x800114 <garra+0x1>
     e38:	c0 91 11 01 	lds	r28, 0x0111	; 0x800111 <garra1>
     e3c:	d0 91 12 01 	lds	r29, 0x0112	; 0x800112 <garra1+0x1>
     e40:	c8 17       	cp	r28, r24
     e42:	d9 07       	cpc	r29, r25
     e44:	64 f0       	brlt	.+24     	; 0xe5e <__stack+0x55f>
     e46:	1e c0       	rjmp	.+60     	; 0xe84 <__stack+0x585>
			for (int w = garra1; w<=garra; w++){
				convertServo2(w, channel2A);
     e48:	61 e0       	ldi	r22, 0x01	; 1
     e4a:	ce 01       	movw	r24, r28
     e4c:	0e 94 b0 0e 	call	0x1d60	; 0x1d60 <convertServo2>
     e50:	8f e3       	ldi	r24, 0x3F	; 63
     e52:	9c e9       	ldi	r25, 0x9C	; 156
     e54:	01 97       	sbiw	r24, 0x01	; 1
     e56:	f1 f7       	brne	.-4      	; 0xe54 <__stack+0x555>
     e58:	00 c0       	rjmp	.+0      	; 0xe5a <__stack+0x55b>
     e5a:	00 00       	nop
				
			 }
				
			         //INICIO DE SECUENCIA AUTOMATICA
			if (garra > garra1){
			for (int w = garra1; w<=garra; w++){
     e5c:	21 96       	adiw	r28, 0x01	; 1
     e5e:	80 91 13 01 	lds	r24, 0x0113	; 0x800113 <garra>
     e62:	90 91 14 01 	lds	r25, 0x0114	; 0x800114 <garra+0x1>
     e66:	8c 17       	cp	r24, r28
     e68:	9d 07       	cpc	r25, r29
     e6a:	74 f7       	brge	.-36     	; 0xe48 <__stack+0x549>
     e6c:	12 c0       	rjmp	.+36     	; 0xe92 <__stack+0x593>
			}
			}
			
			else{
				for (int w = garra1; w>=garra; w--){
					convertServo2(w, channel2A);
     e6e:	61 e0       	ldi	r22, 0x01	; 1
     e70:	ce 01       	movw	r24, r28
     e72:	0e 94 b0 0e 	call	0x1d60	; 0x1d60 <convertServo2>
     e76:	8f e3       	ldi	r24, 0x3F	; 63
     e78:	9c e9       	ldi	r25, 0x9C	; 156
     e7a:	01 97       	sbiw	r24, 0x01	; 1
     e7c:	f1 f7       	brne	.-4      	; 0xe7a <__stack+0x57b>
     e7e:	00 c0       	rjmp	.+0      	; 0xe80 <__stack+0x581>
     e80:	00 00       	nop
				_delay_ms(10);
			}
			}
			
			else{
				for (int w = garra1; w>=garra; w--){
     e82:	21 97       	sbiw	r28, 0x01	; 1
     e84:	80 91 13 01 	lds	r24, 0x0113	; 0x800113 <garra>
     e88:	90 91 14 01 	lds	r25, 0x0114	; 0x800114 <garra+0x1>
     e8c:	c8 17       	cp	r28, r24
     e8e:	d9 07       	cpc	r29, r25
     e90:	74 f7       	brge	.-36     	; 0xe6e <__stack+0x56f>
					_delay_ms(10);
				}
			}
			
			
			if (brazo > brazo1){
     e92:	80 91 0f 01 	lds	r24, 0x010F	; 0x80010f <brazo>
     e96:	90 91 10 01 	lds	r25, 0x0110	; 0x800110 <brazo+0x1>
     e9a:	c0 91 0d 01 	lds	r28, 0x010D	; 0x80010d <brazo1>
     e9e:	d0 91 0e 01 	lds	r29, 0x010E	; 0x80010e <brazo1+0x1>
     ea2:	c8 17       	cp	r28, r24
     ea4:	d9 07       	cpc	r29, r25
     ea6:	64 f0       	brlt	.+24     	; 0xec0 <__stack+0x5c1>
     ea8:	1e c0       	rjmp	.+60     	; 0xee6 <__stack+0x5e7>
				for (int w = brazo1; w<=brazo; w++){
					convertServo(w, channelA);
     eaa:	61 e0       	ldi	r22, 0x01	; 1
     eac:	ce 01       	movw	r24, r28
     eae:	0e 94 67 0e 	call	0x1cce	; 0x1cce <convertServo>
     eb2:	8f e3       	ldi	r24, 0x3F	; 63
     eb4:	9c e9       	ldi	r25, 0x9C	; 156
     eb6:	01 97       	sbiw	r24, 0x01	; 1
     eb8:	f1 f7       	brne	.-4      	; 0xeb6 <__stack+0x5b7>
     eba:	00 c0       	rjmp	.+0      	; 0xebc <__stack+0x5bd>
     ebc:	00 00       	nop
				}
			}
			
			
			if (brazo > brazo1){
				for (int w = brazo1; w<=brazo; w++){
     ebe:	21 96       	adiw	r28, 0x01	; 1
     ec0:	80 91 0f 01 	lds	r24, 0x010F	; 0x80010f <brazo>
     ec4:	90 91 10 01 	lds	r25, 0x0110	; 0x800110 <brazo+0x1>
     ec8:	8c 17       	cp	r24, r28
     eca:	9d 07       	cpc	r25, r29
     ecc:	74 f7       	brge	.-36     	; 0xeaa <__stack+0x5ab>
     ece:	12 c0       	rjmp	.+36     	; 0xef4 <__stack+0x5f5>
				}
			}
			
			else{
				for (int w = brazo1; w>=brazo; w--){
					convertServo(w, channelA);
     ed0:	61 e0       	ldi	r22, 0x01	; 1
     ed2:	ce 01       	movw	r24, r28
     ed4:	0e 94 67 0e 	call	0x1cce	; 0x1cce <convertServo>
     ed8:	8f e3       	ldi	r24, 0x3F	; 63
     eda:	9c e9       	ldi	r25, 0x9C	; 156
     edc:	01 97       	sbiw	r24, 0x01	; 1
     ede:	f1 f7       	brne	.-4      	; 0xedc <__stack+0x5dd>
     ee0:	00 c0       	rjmp	.+0      	; 0xee2 <__stack+0x5e3>
     ee2:	00 00       	nop
					_delay_ms(10);
				}
			}
			
			else{
				for (int w = brazo1; w>=brazo; w--){
     ee4:	21 97       	sbiw	r28, 0x01	; 1
     ee6:	80 91 0f 01 	lds	r24, 0x010F	; 0x80010f <brazo>
     eea:	90 91 10 01 	lds	r25, 0x0110	; 0x800110 <brazo+0x1>
     eee:	c8 17       	cp	r28, r24
     ef0:	d9 07       	cpc	r29, r25
     ef2:	74 f7       	brge	.-36     	; 0xed0 <__stack+0x5d1>
				}
			}
			
			
		
			if (codo > codo1){
     ef4:	80 91 0b 01 	lds	r24, 0x010B	; 0x80010b <codo>
     ef8:	90 91 0c 01 	lds	r25, 0x010C	; 0x80010c <codo+0x1>
     efc:	c0 91 09 01 	lds	r28, 0x0109	; 0x800109 <codo1>
     f00:	d0 91 0a 01 	lds	r29, 0x010A	; 0x80010a <codo1+0x1>
     f04:	c8 17       	cp	r28, r24
     f06:	d9 07       	cpc	r29, r25
     f08:	64 f0       	brlt	.+24     	; 0xf22 <__stack+0x623>
     f0a:	1e c0       	rjmp	.+60     	; 0xf48 <__stack+0x649>
				for (int w = codo1; w<=codo; w++){
					convertServo(w, channelB);
     f0c:	62 e0       	ldi	r22, 0x02	; 2
     f0e:	ce 01       	movw	r24, r28
     f10:	0e 94 67 0e 	call	0x1cce	; 0x1cce <convertServo>
     f14:	8f e3       	ldi	r24, 0x3F	; 63
     f16:	9c e9       	ldi	r25, 0x9C	; 156
     f18:	01 97       	sbiw	r24, 0x01	; 1
     f1a:	f1 f7       	brne	.-4      	; 0xf18 <__stack+0x619>
     f1c:	00 c0       	rjmp	.+0      	; 0xf1e <__stack+0x61f>
     f1e:	00 00       	nop
			}
			
			
		
			if (codo > codo1){
				for (int w = codo1; w<=codo; w++){
     f20:	21 96       	adiw	r28, 0x01	; 1
     f22:	80 91 0b 01 	lds	r24, 0x010B	; 0x80010b <codo>
     f26:	90 91 0c 01 	lds	r25, 0x010C	; 0x80010c <codo+0x1>
     f2a:	8c 17       	cp	r24, r28
     f2c:	9d 07       	cpc	r25, r29
     f2e:	74 f7       	brge	.-36     	; 0xf0c <__stack+0x60d>
     f30:	12 c0       	rjmp	.+36     	; 0xf56 <__stack+0x657>
				}
			}
			
			else{
				for (int w = codo1; w>=codo; w--){
					convertServo(w, channelB);
     f32:	62 e0       	ldi	r22, 0x02	; 2
     f34:	ce 01       	movw	r24, r28
     f36:	0e 94 67 0e 	call	0x1cce	; 0x1cce <convertServo>
     f3a:	8f e3       	ldi	r24, 0x3F	; 63
     f3c:	9c e9       	ldi	r25, 0x9C	; 156
     f3e:	01 97       	sbiw	r24, 0x01	; 1
     f40:	f1 f7       	brne	.-4      	; 0xf3e <__stack+0x63f>
     f42:	00 c0       	rjmp	.+0      	; 0xf44 <__stack+0x645>
     f44:	00 00       	nop
					_delay_ms(10);
				}
			}
			
			else{
				for (int w = codo1; w>=codo; w--){
     f46:	21 97       	sbiw	r28, 0x01	; 1
     f48:	80 91 0b 01 	lds	r24, 0x010B	; 0x80010b <codo>
     f4c:	90 91 0c 01 	lds	r25, 0x010C	; 0x80010c <codo+0x1>
     f50:	c8 17       	cp	r28, r24
     f52:	d9 07       	cpc	r29, r25
     f54:	74 f7       	brge	.-36     	; 0xf32 <__stack+0x633>
					convertServo(w, channelB);
					_delay_ms(10);
				}
			}
			
			if (rota > rota1){
     f56:	80 91 07 01 	lds	r24, 0x0107	; 0x800107 <rota>
     f5a:	90 91 08 01 	lds	r25, 0x0108	; 0x800108 <rota+0x1>
     f5e:	c0 91 05 01 	lds	r28, 0x0105	; 0x800105 <rota1>
     f62:	d0 91 06 01 	lds	r29, 0x0106	; 0x800106 <rota1+0x1>
     f66:	c8 17       	cp	r28, r24
     f68:	d9 07       	cpc	r29, r25
     f6a:	7c f0       	brlt	.+30     	; 0xf8a <__stack+0x68b>
     f6c:	24 c0       	rjmp	.+72     	; 0xfb6 <__stack+0x6b7>
				for (int w = rota1; w<=rota; w++){
					convertServo2(w, channel2B);
     f6e:	62 e0       	ldi	r22, 0x02	; 2
     f70:	ce 01       	movw	r24, r28
     f72:	0e 94 b0 0e 	call	0x1d60	; 0x1d60 <convertServo2>
     f76:	9f ef       	ldi	r25, 0xFF	; 255
     f78:	29 ef       	ldi	r18, 0xF9	; 249
     f7a:	80 e0       	ldi	r24, 0x00	; 0
     f7c:	91 50       	subi	r25, 0x01	; 1
     f7e:	20 40       	sbci	r18, 0x00	; 0
     f80:	80 40       	sbci	r24, 0x00	; 0
     f82:	e1 f7       	brne	.-8      	; 0xf7c <__stack+0x67d>
     f84:	00 c0       	rjmp	.+0      	; 0xf86 <__stack+0x687>
     f86:	00 00       	nop
					_delay_ms(10);
				}
			}
			
			if (rota > rota1){
				for (int w = rota1; w<=rota; w++){
     f88:	21 96       	adiw	r28, 0x01	; 1
     f8a:	80 91 07 01 	lds	r24, 0x0107	; 0x800107 <rota>
     f8e:	90 91 08 01 	lds	r25, 0x0108	; 0x800108 <rota+0x1>
     f92:	8c 17       	cp	r24, r28
     f94:	9d 07       	cpc	r25, r29
     f96:	5c f7       	brge	.-42     	; 0xf6e <__stack+0x66f>
     f98:	15 c0       	rjmp	.+42     	; 0xfc4 <__stack+0x6c5>
				}
			}
			
			else{
				for (int w = rota1; w>=rota; w--){
					convertServo2(w, channel2B);
     f9a:	62 e0       	ldi	r22, 0x02	; 2
     f9c:	ce 01       	movw	r24, r28
     f9e:	0e 94 b0 0e 	call	0x1d60	; 0x1d60 <convertServo2>
     fa2:	9f ef       	ldi	r25, 0xFF	; 255
     fa4:	29 ef       	ldi	r18, 0xF9	; 249
     fa6:	80 e0       	ldi	r24, 0x00	; 0
     fa8:	91 50       	subi	r25, 0x01	; 1
     faa:	20 40       	sbci	r18, 0x00	; 0
     fac:	80 40       	sbci	r24, 0x00	; 0
     fae:	e1 f7       	brne	.-8      	; 0xfa8 <__stack+0x6a9>
     fb0:	00 c0       	rjmp	.+0      	; 0xfb2 <__stack+0x6b3>
     fb2:	00 00       	nop
					_delay_ms(20);
				}
			}
			
			else{
				for (int w = rota1; w>=rota; w--){
     fb4:	21 97       	sbiw	r28, 0x01	; 1
     fb6:	80 91 07 01 	lds	r24, 0x0107	; 0x800107 <rota>
     fba:	90 91 08 01 	lds	r25, 0x0108	; 0x800108 <rota+0x1>
     fbe:	c8 17       	cp	r28, r24
     fc0:	d9 07       	cpc	r29, r25
     fc2:	5c f7       	brge	.-42     	; 0xf9a <__stack+0x69b>
			}
			
			
			
			//FIN
			if (garra > garra1){
     fc4:	c0 91 13 01 	lds	r28, 0x0113	; 0x800113 <garra>
     fc8:	d0 91 14 01 	lds	r29, 0x0114	; 0x800114 <garra+0x1>
     fcc:	80 91 11 01 	lds	r24, 0x0111	; 0x800111 <garra1>
     fd0:	90 91 12 01 	lds	r25, 0x0112	; 0x800112 <garra1+0x1>
     fd4:	8c 17       	cp	r24, r28
     fd6:	9d 07       	cpc	r25, r29
     fd8:	64 f0       	brlt	.+24     	; 0xff2 <__stack+0x6f3>
     fda:	1e c0       	rjmp	.+60     	; 0x1018 <__stack+0x719>
			for (int w = garra; w>=garra1; w--){
				convertServo2(w, channel2A);
     fdc:	61 e0       	ldi	r22, 0x01	; 1
     fde:	ce 01       	movw	r24, r28
     fe0:	0e 94 b0 0e 	call	0x1d60	; 0x1d60 <convertServo2>
     fe4:	8f e3       	ldi	r24, 0x3F	; 63
     fe6:	9c e9       	ldi	r25, 0x9C	; 156
     fe8:	01 97       	sbiw	r24, 0x01	; 1
     fea:	f1 f7       	brne	.-4      	; 0xfe8 <__stack+0x6e9>
     fec:	00 c0       	rjmp	.+0      	; 0xfee <__stack+0x6ef>
     fee:	00 00       	nop
			
			
			
			//FIN
			if (garra > garra1){
			for (int w = garra; w>=garra1; w--){
     ff0:	21 97       	sbiw	r28, 0x01	; 1
     ff2:	80 91 11 01 	lds	r24, 0x0111	; 0x800111 <garra1>
     ff6:	90 91 12 01 	lds	r25, 0x0112	; 0x800112 <garra1+0x1>
     ffa:	c8 17       	cp	r28, r24
     ffc:	d9 07       	cpc	r29, r25
     ffe:	74 f7       	brge	.-36     	; 0xfdc <__stack+0x6dd>
    1000:	12 c0       	rjmp	.+36     	; 0x1026 <__stack+0x727>
				_delay_ms(10);
			}
			}
			else{
				for (int w = garra; w<=garra1; w++){
					convertServo2(w, channel2A);
    1002:	61 e0       	ldi	r22, 0x01	; 1
    1004:	ce 01       	movw	r24, r28
    1006:	0e 94 b0 0e 	call	0x1d60	; 0x1d60 <convertServo2>
    100a:	8f e3       	ldi	r24, 0x3F	; 63
    100c:	9c e9       	ldi	r25, 0x9C	; 156
    100e:	01 97       	sbiw	r24, 0x01	; 1
    1010:	f1 f7       	brne	.-4      	; 0x100e <__stack+0x70f>
    1012:	00 c0       	rjmp	.+0      	; 0x1014 <__stack+0x715>
    1014:	00 00       	nop
				convertServo2(w, channel2A);
				_delay_ms(10);
			}
			}
			else{
				for (int w = garra; w<=garra1; w++){
    1016:	21 96       	adiw	r28, 0x01	; 1
    1018:	80 91 11 01 	lds	r24, 0x0111	; 0x800111 <garra1>
    101c:	90 91 12 01 	lds	r25, 0x0112	; 0x800112 <garra1+0x1>
    1020:	8c 17       	cp	r24, r28
    1022:	9d 07       	cpc	r25, r29
    1024:	74 f7       	brge	.-36     	; 0x1002 <__stack+0x703>
					_delay_ms(10);
				}
			}
		
			
			if (brazo > brazo1){
    1026:	c0 91 0f 01 	lds	r28, 0x010F	; 0x80010f <brazo>
    102a:	d0 91 10 01 	lds	r29, 0x0110	; 0x800110 <brazo+0x1>
    102e:	80 91 0d 01 	lds	r24, 0x010D	; 0x80010d <brazo1>
    1032:	90 91 0e 01 	lds	r25, 0x010E	; 0x80010e <brazo1+0x1>
    1036:	8c 17       	cp	r24, r28
    1038:	9d 07       	cpc	r25, r29
    103a:	64 f0       	brlt	.+24     	; 0x1054 <__stack+0x755>
    103c:	1e c0       	rjmp	.+60     	; 0x107a <__stack+0x77b>
				for (int w = brazo; w>=brazo1; w--){
					convertServo(w, channelA);
    103e:	61 e0       	ldi	r22, 0x01	; 1
    1040:	ce 01       	movw	r24, r28
    1042:	0e 94 67 0e 	call	0x1cce	; 0x1cce <convertServo>
    1046:	8f e3       	ldi	r24, 0x3F	; 63
    1048:	9c e9       	ldi	r25, 0x9C	; 156
    104a:	01 97       	sbiw	r24, 0x01	; 1
    104c:	f1 f7       	brne	.-4      	; 0x104a <__stack+0x74b>
    104e:	00 c0       	rjmp	.+0      	; 0x1050 <__stack+0x751>
    1050:	00 00       	nop
				}
			}
		
			
			if (brazo > brazo1){
				for (int w = brazo; w>=brazo1; w--){
    1052:	21 97       	sbiw	r28, 0x01	; 1
    1054:	80 91 0d 01 	lds	r24, 0x010D	; 0x80010d <brazo1>
    1058:	90 91 0e 01 	lds	r25, 0x010E	; 0x80010e <brazo1+0x1>
    105c:	c8 17       	cp	r28, r24
    105e:	d9 07       	cpc	r29, r25
    1060:	74 f7       	brge	.-36     	; 0x103e <__stack+0x73f>
    1062:	12 c0       	rjmp	.+36     	; 0x1088 <__stack+0x789>
					_delay_ms(10);
				}
			}
			else{
				for (int w = brazo; w<=brazo1; w++){
					convertServo(w, channelA);
    1064:	61 e0       	ldi	r22, 0x01	; 1
    1066:	ce 01       	movw	r24, r28
    1068:	0e 94 67 0e 	call	0x1cce	; 0x1cce <convertServo>
    106c:	8f e3       	ldi	r24, 0x3F	; 63
    106e:	9c e9       	ldi	r25, 0x9C	; 156
    1070:	01 97       	sbiw	r24, 0x01	; 1
    1072:	f1 f7       	brne	.-4      	; 0x1070 <__stack+0x771>
    1074:	00 c0       	rjmp	.+0      	; 0x1076 <__stack+0x777>
    1076:	00 00       	nop
					convertServo(w, channelA);
					_delay_ms(10);
				}
			}
			else{
				for (int w = brazo; w<=brazo1; w++){
    1078:	21 96       	adiw	r28, 0x01	; 1
    107a:	80 91 0d 01 	lds	r24, 0x010D	; 0x80010d <brazo1>
    107e:	90 91 0e 01 	lds	r25, 0x010E	; 0x80010e <brazo1+0x1>
    1082:	8c 17       	cp	r24, r28
    1084:	9d 07       	cpc	r25, r29
    1086:	74 f7       	brge	.-36     	; 0x1064 <__stack+0x765>
					_delay_ms(10);
				}
			}
			
		
			if (codo > codo1){
    1088:	c0 91 0b 01 	lds	r28, 0x010B	; 0x80010b <codo>
    108c:	d0 91 0c 01 	lds	r29, 0x010C	; 0x80010c <codo+0x1>
    1090:	80 91 09 01 	lds	r24, 0x0109	; 0x800109 <codo1>
    1094:	90 91 0a 01 	lds	r25, 0x010A	; 0x80010a <codo1+0x1>
    1098:	8c 17       	cp	r24, r28
    109a:	9d 07       	cpc	r25, r29
    109c:	64 f0       	brlt	.+24     	; 0x10b6 <__stack+0x7b7>
    109e:	1e c0       	rjmp	.+60     	; 0x10dc <__stack+0x7dd>
				for (int w = codo; w>=codo1; w--){
					convertServo(w, channelB);
    10a0:	62 e0       	ldi	r22, 0x02	; 2
    10a2:	ce 01       	movw	r24, r28
    10a4:	0e 94 67 0e 	call	0x1cce	; 0x1cce <convertServo>
    10a8:	8f e3       	ldi	r24, 0x3F	; 63
    10aa:	9c e9       	ldi	r25, 0x9C	; 156
    10ac:	01 97       	sbiw	r24, 0x01	; 1
    10ae:	f1 f7       	brne	.-4      	; 0x10ac <__stack+0x7ad>
    10b0:	00 c0       	rjmp	.+0      	; 0x10b2 <__stack+0x7b3>
    10b2:	00 00       	nop
				}
			}
			
		
			if (codo > codo1){
				for (int w = codo; w>=codo1; w--){
    10b4:	21 97       	sbiw	r28, 0x01	; 1
    10b6:	80 91 09 01 	lds	r24, 0x0109	; 0x800109 <codo1>
    10ba:	90 91 0a 01 	lds	r25, 0x010A	; 0x80010a <codo1+0x1>
    10be:	c8 17       	cp	r28, r24
    10c0:	d9 07       	cpc	r29, r25
    10c2:	74 f7       	brge	.-36     	; 0x10a0 <__stack+0x7a1>
    10c4:	12 c0       	rjmp	.+36     	; 0x10ea <__stack+0x7eb>
					_delay_ms(10);
				}
			}
			else{
				for (int w = codo; w<=codo1; w++){
					convertServo(w, channelB);
    10c6:	62 e0       	ldi	r22, 0x02	; 2
    10c8:	ce 01       	movw	r24, r28
    10ca:	0e 94 67 0e 	call	0x1cce	; 0x1cce <convertServo>
    10ce:	8f e3       	ldi	r24, 0x3F	; 63
    10d0:	9c e9       	ldi	r25, 0x9C	; 156
    10d2:	01 97       	sbiw	r24, 0x01	; 1
    10d4:	f1 f7       	brne	.-4      	; 0x10d2 <__stack+0x7d3>
    10d6:	00 c0       	rjmp	.+0      	; 0x10d8 <__stack+0x7d9>
    10d8:	00 00       	nop
					convertServo(w, channelB);
					_delay_ms(10);
				}
			}
			else{
				for (int w = codo; w<=codo1; w++){
    10da:	21 96       	adiw	r28, 0x01	; 1
    10dc:	80 91 09 01 	lds	r24, 0x0109	; 0x800109 <codo1>
    10e0:	90 91 0a 01 	lds	r25, 0x010A	; 0x80010a <codo1+0x1>
    10e4:	8c 17       	cp	r24, r28
    10e6:	9d 07       	cpc	r25, r29
    10e8:	74 f7       	brge	.-36     	; 0x10c6 <__stack+0x7c7>
					convertServo(w, channelB);
					_delay_ms(10);
				}
			}
			
			if (rota > rota1){
    10ea:	c0 91 07 01 	lds	r28, 0x0107	; 0x800107 <rota>
    10ee:	d0 91 08 01 	lds	r29, 0x0108	; 0x800108 <rota+0x1>
    10f2:	80 91 05 01 	lds	r24, 0x0105	; 0x800105 <rota1>
    10f6:	90 91 06 01 	lds	r25, 0x0106	; 0x800106 <rota1+0x1>
    10fa:	8c 17       	cp	r24, r28
    10fc:	9d 07       	cpc	r25, r29
    10fe:	7c f0       	brlt	.+30     	; 0x111e <__stack+0x81f>
    1100:	24 c0       	rjmp	.+72     	; 0x114a <__stack+0x84b>
				for (int w = rota; w>=rota1; w--){
					convertServo2(w, channel2B);
    1102:	62 e0       	ldi	r22, 0x02	; 2
    1104:	ce 01       	movw	r24, r28
    1106:	0e 94 b0 0e 	call	0x1d60	; 0x1d60 <convertServo2>
    110a:	9f ef       	ldi	r25, 0xFF	; 255
    110c:	29 ef       	ldi	r18, 0xF9	; 249
    110e:	80 e0       	ldi	r24, 0x00	; 0
    1110:	91 50       	subi	r25, 0x01	; 1
    1112:	20 40       	sbci	r18, 0x00	; 0
    1114:	80 40       	sbci	r24, 0x00	; 0
    1116:	e1 f7       	brne	.-8      	; 0x1110 <__stack+0x811>
    1118:	00 c0       	rjmp	.+0      	; 0x111a <__stack+0x81b>
    111a:	00 00       	nop
					_delay_ms(10);
				}
			}
			
			if (rota > rota1){
				for (int w = rota; w>=rota1; w--){
    111c:	21 97       	sbiw	r28, 0x01	; 1
    111e:	80 91 05 01 	lds	r24, 0x0105	; 0x800105 <rota1>
    1122:	90 91 06 01 	lds	r25, 0x0106	; 0x800106 <rota1+0x1>
    1126:	c8 17       	cp	r28, r24
    1128:	d9 07       	cpc	r29, r25
    112a:	5c f7       	brge	.-42     	; 0x1102 <__stack+0x803>
    112c:	a0 c4       	rjmp	.+2368   	; 0x1a6e <__stack+0x116f>
					_delay_ms(20);
				}
			}
			else{
				for (int w = rota; w<=rota1; w++){
					convertServo2(w, channel2B);
    112e:	62 e0       	ldi	r22, 0x02	; 2
    1130:	ce 01       	movw	r24, r28
    1132:	0e 94 b0 0e 	call	0x1d60	; 0x1d60 <convertServo2>
    1136:	9f ef       	ldi	r25, 0xFF	; 255
    1138:	29 ef       	ldi	r18, 0xF9	; 249
    113a:	80 e0       	ldi	r24, 0x00	; 0
    113c:	91 50       	subi	r25, 0x01	; 1
    113e:	20 40       	sbci	r18, 0x00	; 0
    1140:	80 40       	sbci	r24, 0x00	; 0
    1142:	e1 f7       	brne	.-8      	; 0x113c <__stack+0x83d>
    1144:	00 c0       	rjmp	.+0      	; 0x1146 <__stack+0x847>
    1146:	00 00       	nop
					convertServo2(w, channel2B);
					_delay_ms(20);
				}
			}
			else{
				for (int w = rota; w<=rota1; w++){
    1148:	21 96       	adiw	r28, 0x01	; 1
    114a:	80 91 05 01 	lds	r24, 0x0105	; 0x800105 <rota1>
    114e:	90 91 06 01 	lds	r25, 0x0106	; 0x800106 <rota1+0x1>
    1152:	8c 17       	cp	r24, r28
    1154:	9d 07       	cpc	r25, r29
    1156:	5c f7       	brge	.-42     	; 0x112e <__stack+0x82f>
    1158:	8a c4       	rjmp	.+2324   	; 0x1a6e <__stack+0x116f>
		
		}
			break;
	
		case 1: //Si se desea manipular al robot con EEPROM
			PORTD |=  (1 << DDD4) | (1 << DDD5);  //encender los led correspondientes
    115a:	8b b1       	in	r24, 0x0b	; 11
    115c:	80 63       	ori	r24, 0x30	; 48
    115e:	8b b9       	out	0x0b, r24	; 11
			if(activa3 == 1){
    1160:	80 91 1b 01 	lds	r24, 0x011B	; 0x80011b <activa3>
    1164:	90 91 1c 01 	lds	r25, 0x011C	; 0x80011c <activa3+0x1>
    1168:	01 97       	sbiw	r24, 0x01	; 1
    116a:	21 f4       	brne	.+8      	; 0x1174 <__stack+0x875>
				PORTD &=  (1 << DDD4) | (1 << DDD5);
    116c:	8b b1       	in	r24, 0x0b	; 11
    116e:	80 73       	andi	r24, 0x30	; 48
    1170:	8b b9       	out	0x0b, r24	; 11
    1172:	04 c0       	rjmp	.+8      	; 0x117c <__stack+0x87d>
			}
			else{
				activa3 = 0;
    1174:	10 92 1c 01 	sts	0x011C, r1	; 0x80011c <activa3+0x1>
    1178:	10 92 1b 01 	sts	0x011B, r1	; 0x80011b <activa3>
			}
			
			
			
			
			if ((PINB & (1 << PINB0)) == 0  || receivedChar == 'l')    //Si se presiona el segundo pulsador guardar posicion en EEPROM
    117c:	18 9b       	sbis	0x03, 0	; 3
    117e:	05 c0       	rjmp	.+10     	; 0x118a <__stack+0x88b>
    1180:	80 91 02 01 	lds	r24, 0x0102	; 0x800102 <__data_end>
    1184:	8c 36       	cpi	r24, 0x6C	; 108
    1186:	09 f0       	breq	.+2      	; 0x118a <__stack+0x88b>
    1188:	a6 c0       	rjmp	.+332    	; 0x12d6 <__stack+0x9d7>
    118a:	9f ef       	ldi	r25, 0xFF	; 255
    118c:	29 ef       	ldi	r18, 0xF9	; 249
    118e:	80 e0       	ldi	r24, 0x00	; 0
    1190:	91 50       	subi	r25, 0x01	; 1
    1192:	20 40       	sbci	r18, 0x00	; 0
    1194:	80 40       	sbci	r24, 0x00	; 0
    1196:	e1 f7       	brne	.-8      	; 0x1190 <__stack+0x891>
    1198:	00 c0       	rjmp	.+0      	; 0x119a <__stack+0x89b>
    119a:	00 00       	nop
			{
				_delay_ms(20);
				sumar ++;
    119c:	80 91 03 01 	lds	r24, 0x0103	; 0x800103 <sumar>
    11a0:	90 91 04 01 	lds	r25, 0x0104	; 0x800104 <sumar+0x1>
    11a4:	01 96       	adiw	r24, 0x01	; 1
    11a6:	90 93 04 01 	sts	0x0104, r25	; 0x800104 <sumar+0x1>
    11aa:	80 93 03 01 	sts	0x0103, r24	; 0x800103 <sumar>
				receivedChar = 0;
    11ae:	10 92 02 01 	sts	0x0102, r1	; 0x800102 <__data_end>
				
				      //Verificar que valor tiene la posicion actual y almacenar los valores
				      if (sumar == 1)
    11b2:	81 30       	cpi	r24, 0x01	; 1
    11b4:	91 05       	cpc	r25, r1
    11b6:	09 f5       	brne	.+66     	; 0x11fa <__stack+0x8fb>
				      {
					      EEPROM_write(0,garra);          //Almacenar cada valor de cada servomotor
    11b8:	60 91 13 01 	lds	r22, 0x0113	; 0x800113 <garra>
    11bc:	70 91 14 01 	lds	r23, 0x0114	; 0x800114 <garra+0x1>
    11c0:	80 e0       	ldi	r24, 0x00	; 0
    11c2:	90 e0       	ldi	r25, 0x00	; 0
    11c4:	0e 94 77 01 	call	0x2ee	; 0x2ee <EEPROM_write>
						  EEPROM_write(1,brazo);
    11c8:	60 91 0f 01 	lds	r22, 0x010F	; 0x80010f <brazo>
    11cc:	70 91 10 01 	lds	r23, 0x0110	; 0x800110 <brazo+0x1>
    11d0:	81 e0       	ldi	r24, 0x01	; 1
    11d2:	90 e0       	ldi	r25, 0x00	; 0
    11d4:	0e 94 77 01 	call	0x2ee	; 0x2ee <EEPROM_write>
						  EEPROM_write(2,codo);
    11d8:	60 91 0b 01 	lds	r22, 0x010B	; 0x80010b <codo>
    11dc:	70 91 0c 01 	lds	r23, 0x010C	; 0x80010c <codo+0x1>
    11e0:	82 e0       	ldi	r24, 0x02	; 2
    11e2:	90 e0       	ldi	r25, 0x00	; 0
    11e4:	0e 94 77 01 	call	0x2ee	; 0x2ee <EEPROM_write>
						  EEPROM_write(3,rota);
    11e8:	60 91 07 01 	lds	r22, 0x0107	; 0x800107 <rota>
    11ec:	70 91 08 01 	lds	r23, 0x0108	; 0x800108 <rota+0x1>
    11f0:	83 e0       	ldi	r24, 0x03	; 3
    11f2:	90 e0       	ldi	r25, 0x00	; 0
    11f4:	0e 94 77 01 	call	0x2ee	; 0x2ee <EEPROM_write>
    11f8:	6e c0       	rjmp	.+220    	; 0x12d6 <__stack+0x9d7>
				      }
				      
				      else if (sumar == 2)
    11fa:	82 30       	cpi	r24, 0x02	; 2
    11fc:	91 05       	cpc	r25, r1
    11fe:	09 f5       	brne	.+66     	; 0x1242 <__stack+0x943>
				      {
						  EEPROM_write(4,garra);
    1200:	60 91 13 01 	lds	r22, 0x0113	; 0x800113 <garra>
    1204:	70 91 14 01 	lds	r23, 0x0114	; 0x800114 <garra+0x1>
    1208:	84 e0       	ldi	r24, 0x04	; 4
    120a:	90 e0       	ldi	r25, 0x00	; 0
    120c:	0e 94 77 01 	call	0x2ee	; 0x2ee <EEPROM_write>
						  EEPROM_write(5,brazo);
    1210:	60 91 0f 01 	lds	r22, 0x010F	; 0x80010f <brazo>
    1214:	70 91 10 01 	lds	r23, 0x0110	; 0x800110 <brazo+0x1>
    1218:	85 e0       	ldi	r24, 0x05	; 5
    121a:	90 e0       	ldi	r25, 0x00	; 0
    121c:	0e 94 77 01 	call	0x2ee	; 0x2ee <EEPROM_write>
						  EEPROM_write(6,codo);
    1220:	60 91 0b 01 	lds	r22, 0x010B	; 0x80010b <codo>
    1224:	70 91 0c 01 	lds	r23, 0x010C	; 0x80010c <codo+0x1>
    1228:	86 e0       	ldi	r24, 0x06	; 6
    122a:	90 e0       	ldi	r25, 0x00	; 0
    122c:	0e 94 77 01 	call	0x2ee	; 0x2ee <EEPROM_write>
						  EEPROM_write(7,rota);
    1230:	60 91 07 01 	lds	r22, 0x0107	; 0x800107 <rota>
    1234:	70 91 08 01 	lds	r23, 0x0108	; 0x800108 <rota+0x1>
    1238:	87 e0       	ldi	r24, 0x07	; 7
    123a:	90 e0       	ldi	r25, 0x00	; 0
    123c:	0e 94 77 01 	call	0x2ee	; 0x2ee <EEPROM_write>
    1240:	4a c0       	rjmp	.+148    	; 0x12d6 <__stack+0x9d7>
					      
				      }
				      
				      else if (sumar == 3)
    1242:	83 30       	cpi	r24, 0x03	; 3
    1244:	91 05       	cpc	r25, r1
    1246:	09 f5       	brne	.+66     	; 0x128a <__stack+0x98b>
				      {
					      EEPROM_write(8,garra);
    1248:	60 91 13 01 	lds	r22, 0x0113	; 0x800113 <garra>
    124c:	70 91 14 01 	lds	r23, 0x0114	; 0x800114 <garra+0x1>
    1250:	88 e0       	ldi	r24, 0x08	; 8
    1252:	90 e0       	ldi	r25, 0x00	; 0
    1254:	0e 94 77 01 	call	0x2ee	; 0x2ee <EEPROM_write>
					      EEPROM_write(9,brazo);
    1258:	60 91 0f 01 	lds	r22, 0x010F	; 0x80010f <brazo>
    125c:	70 91 10 01 	lds	r23, 0x0110	; 0x800110 <brazo+0x1>
    1260:	89 e0       	ldi	r24, 0x09	; 9
    1262:	90 e0       	ldi	r25, 0x00	; 0
    1264:	0e 94 77 01 	call	0x2ee	; 0x2ee <EEPROM_write>
					      EEPROM_write(10,codo);
    1268:	60 91 0b 01 	lds	r22, 0x010B	; 0x80010b <codo>
    126c:	70 91 0c 01 	lds	r23, 0x010C	; 0x80010c <codo+0x1>
    1270:	8a e0       	ldi	r24, 0x0A	; 10
    1272:	90 e0       	ldi	r25, 0x00	; 0
    1274:	0e 94 77 01 	call	0x2ee	; 0x2ee <EEPROM_write>
					      EEPROM_write(11,rota);
    1278:	60 91 07 01 	lds	r22, 0x0107	; 0x800107 <rota>
    127c:	70 91 08 01 	lds	r23, 0x0108	; 0x800108 <rota+0x1>
    1280:	8b e0       	ldi	r24, 0x0B	; 11
    1282:	90 e0       	ldi	r25, 0x00	; 0
    1284:	0e 94 77 01 	call	0x2ee	; 0x2ee <EEPROM_write>
    1288:	26 c0       	rjmp	.+76     	; 0x12d6 <__stack+0x9d7>
					      
				      }
				      
				      else if (sumar == 4)
    128a:	04 97       	sbiw	r24, 0x04	; 4
    128c:	21 f5       	brne	.+72     	; 0x12d6 <__stack+0x9d7>
				      {
					      sumar = 0;
    128e:	10 92 04 01 	sts	0x0104, r1	; 0x800104 <sumar+0x1>
    1292:	10 92 03 01 	sts	0x0103, r1	; 0x800103 <sumar>
						   EEPROM_write(12,garra);
    1296:	60 91 13 01 	lds	r22, 0x0113	; 0x800113 <garra>
    129a:	70 91 14 01 	lds	r23, 0x0114	; 0x800114 <garra+0x1>
    129e:	8c e0       	ldi	r24, 0x0C	; 12
    12a0:	90 e0       	ldi	r25, 0x00	; 0
    12a2:	0e 94 77 01 	call	0x2ee	; 0x2ee <EEPROM_write>
						   EEPROM_write(13,brazo);
    12a6:	60 91 0f 01 	lds	r22, 0x010F	; 0x80010f <brazo>
    12aa:	70 91 10 01 	lds	r23, 0x0110	; 0x800110 <brazo+0x1>
    12ae:	8d e0       	ldi	r24, 0x0D	; 13
    12b0:	90 e0       	ldi	r25, 0x00	; 0
    12b2:	0e 94 77 01 	call	0x2ee	; 0x2ee <EEPROM_write>
						   EEPROM_write(14,codo);
    12b6:	60 91 0b 01 	lds	r22, 0x010B	; 0x80010b <codo>
    12ba:	70 91 0c 01 	lds	r23, 0x010C	; 0x80010c <codo+0x1>
    12be:	8e e0       	ldi	r24, 0x0E	; 14
    12c0:	90 e0       	ldi	r25, 0x00	; 0
    12c2:	0e 94 77 01 	call	0x2ee	; 0x2ee <EEPROM_write>
						   EEPROM_write(15,rota);
    12c6:	60 91 07 01 	lds	r22, 0x0107	; 0x800107 <rota>
    12ca:	70 91 08 01 	lds	r23, 0x0108	; 0x800108 <rota+0x1>
    12ce:	8f e0       	ldi	r24, 0x0F	; 15
    12d0:	90 e0       	ldi	r25, 0x00	; 0
    12d2:	0e 94 77 01 	call	0x2ee	; 0x2ee <EEPROM_write>
					     
				      }
			}
					     //Verificar que pulsador se presion y mostrar la posicion grabada en EEPROM
			if(PINC & (1 << PINC4) || receivedChar == 'A'){
    12d6:	34 99       	sbic	0x06, 4	; 6
    12d8:	04 c0       	rjmp	.+8      	; 0x12e2 <__stack+0x9e3>
    12da:	80 91 02 01 	lds	r24, 0x0102	; 0x800102 <__data_end>
    12de:	81 34       	cpi	r24, 0x41	; 65
    12e0:	51 f5       	brne	.+84     	; 0x1336 <__stack+0xa37>
    12e2:	8f e5       	ldi	r24, 0x5F	; 95
    12e4:	9a ee       	ldi	r25, 0xEA	; 234
    12e6:	01 97       	sbiw	r24, 0x01	; 1
    12e8:	f1 f7       	brne	.-4      	; 0x12e6 <__stack+0x9e7>
    12ea:	00 c0       	rjmp	.+0      	; 0x12ec <__stack+0x9ed>
    12ec:	00 00       	nop
				_delay_ms(15);
				 activa2 = 1;
    12ee:	81 e0       	ldi	r24, 0x01	; 1
    12f0:	90 e0       	ldi	r25, 0x00	; 0
    12f2:	90 93 20 01 	sts	0x0120, r25	; 0x800120 <activa2+0x1>
    12f6:	80 93 1f 01 	sts	0x011F, r24	; 0x80011f <activa2>
				 int  datoeeprom = EEPROM_read(0);
    12fa:	80 e0       	ldi	r24, 0x00	; 0
    12fc:	90 e0       	ldi	r25, 0x00	; 0
    12fe:	0e 94 83 01 	call	0x306	; 0x306 <EEPROM_read>
				 convertServo2(datoeeprom, channel2A);  //garra
    1302:	61 e0       	ldi	r22, 0x01	; 1
    1304:	0e 94 b0 0e 	call	0x1d60	; 0x1d60 <convertServo2>
				 
				 datoeeprom = EEPROM_read(1);  //brazo
    1308:	81 e0       	ldi	r24, 0x01	; 1
    130a:	90 e0       	ldi	r25, 0x00	; 0
    130c:	0e 94 83 01 	call	0x306	; 0x306 <EEPROM_read>
				 convertServo(datoeeprom, channelA);
    1310:	61 e0       	ldi	r22, 0x01	; 1
    1312:	0e 94 67 0e 	call	0x1cce	; 0x1cce <convertServo>
				 
				  datoeeprom = EEPROM_read(2);  //codo
    1316:	82 e0       	ldi	r24, 0x02	; 2
    1318:	90 e0       	ldi	r25, 0x00	; 0
    131a:	0e 94 83 01 	call	0x306	; 0x306 <EEPROM_read>
				  convertServo(datoeeprom, channelB);
    131e:	62 e0       	ldi	r22, 0x02	; 2
    1320:	0e 94 67 0e 	call	0x1cce	; 0x1cce <convertServo>
				  
				   datoeeprom = EEPROM_read(3);  //rota
    1324:	83 e0       	ldi	r24, 0x03	; 3
    1326:	90 e0       	ldi	r25, 0x00	; 0
    1328:	0e 94 83 01 	call	0x306	; 0x306 <EEPROM_read>
				   convertServo2(datoeeprom, channel2B);
    132c:	62 e0       	ldi	r22, 0x02	; 2
    132e:	0e 94 b0 0e 	call	0x1d60	; 0x1d60 <convertServo2>
				   receivedChar = 0;
    1332:	10 92 02 01 	sts	0x0102, r1	; 0x800102 <__data_end>
			}
			
			if(PINC & (1 << PINC5) || receivedChar == 'B'){
    1336:	35 99       	sbic	0x06, 5	; 6
    1338:	04 c0       	rjmp	.+8      	; 0x1342 <__stack+0xa43>
    133a:	80 91 02 01 	lds	r24, 0x0102	; 0x800102 <__data_end>
    133e:	82 34       	cpi	r24, 0x42	; 66
    1340:	51 f5       	brne	.+84     	; 0x1396 <__stack+0xa97>
    1342:	8f e5       	ldi	r24, 0x5F	; 95
    1344:	9a ee       	ldi	r25, 0xEA	; 234
    1346:	01 97       	sbiw	r24, 0x01	; 1
    1348:	f1 f7       	brne	.-4      	; 0x1346 <__stack+0xa47>
    134a:	00 c0       	rjmp	.+0      	; 0x134c <__stack+0xa4d>
    134c:	00 00       	nop
				_delay_ms(15);
				 activa2 = 1;
    134e:	81 e0       	ldi	r24, 0x01	; 1
    1350:	90 e0       	ldi	r25, 0x00	; 0
    1352:	90 93 20 01 	sts	0x0120, r25	; 0x800120 <activa2+0x1>
    1356:	80 93 1f 01 	sts	0x011F, r24	; 0x80011f <activa2>
				 int  datoeeprom = EEPROM_read(4);
    135a:	84 e0       	ldi	r24, 0x04	; 4
    135c:	90 e0       	ldi	r25, 0x00	; 0
    135e:	0e 94 83 01 	call	0x306	; 0x306 <EEPROM_read>
				 convertServo2(datoeeprom, channel2A); //garra
    1362:	61 e0       	ldi	r22, 0x01	; 1
    1364:	0e 94 b0 0e 	call	0x1d60	; 0x1d60 <convertServo2>
				 
				 datoeeprom = EEPROM_read(5);  //brazo
    1368:	85 e0       	ldi	r24, 0x05	; 5
    136a:	90 e0       	ldi	r25, 0x00	; 0
    136c:	0e 94 83 01 	call	0x306	; 0x306 <EEPROM_read>
				 convertServo(datoeeprom, channelA);
    1370:	61 e0       	ldi	r22, 0x01	; 1
    1372:	0e 94 67 0e 	call	0x1cce	; 0x1cce <convertServo>
				 
				 datoeeprom = EEPROM_read(6);  //codo
    1376:	86 e0       	ldi	r24, 0x06	; 6
    1378:	90 e0       	ldi	r25, 0x00	; 0
    137a:	0e 94 83 01 	call	0x306	; 0x306 <EEPROM_read>
				 convertServo(datoeeprom, channelB);
    137e:	62 e0       	ldi	r22, 0x02	; 2
    1380:	0e 94 67 0e 	call	0x1cce	; 0x1cce <convertServo>
				 
				 datoeeprom = EEPROM_read(7);  //rota
    1384:	87 e0       	ldi	r24, 0x07	; 7
    1386:	90 e0       	ldi	r25, 0x00	; 0
    1388:	0e 94 83 01 	call	0x306	; 0x306 <EEPROM_read>
				 convertServo2(datoeeprom, channel2B);
    138c:	62 e0       	ldi	r22, 0x02	; 2
    138e:	0e 94 b0 0e 	call	0x1d60	; 0x1d60 <convertServo2>
				 receivedChar = 0;
    1392:	10 92 02 01 	sts	0x0102, r1	; 0x800102 <__data_end>
			}
			
			if(PINB & (1 << PINB5) || receivedChar == 'C'){
    1396:	1d 99       	sbic	0x03, 5	; 3
    1398:	04 c0       	rjmp	.+8      	; 0x13a2 <__stack+0xaa3>
    139a:	80 91 02 01 	lds	r24, 0x0102	; 0x800102 <__data_end>
    139e:	83 34       	cpi	r24, 0x43	; 67
    13a0:	51 f5       	brne	.+84     	; 0x13f6 <__stack+0xaf7>
    13a2:	8f e5       	ldi	r24, 0x5F	; 95
    13a4:	9a ee       	ldi	r25, 0xEA	; 234
    13a6:	01 97       	sbiw	r24, 0x01	; 1
    13a8:	f1 f7       	brne	.-4      	; 0x13a6 <__stack+0xaa7>
    13aa:	00 c0       	rjmp	.+0      	; 0x13ac <__stack+0xaad>
    13ac:	00 00       	nop
				_delay_ms(15);
				 activa2 = 1;
    13ae:	81 e0       	ldi	r24, 0x01	; 1
    13b0:	90 e0       	ldi	r25, 0x00	; 0
    13b2:	90 93 20 01 	sts	0x0120, r25	; 0x800120 <activa2+0x1>
    13b6:	80 93 1f 01 	sts	0x011F, r24	; 0x80011f <activa2>
				 int  datoeeprom = EEPROM_read(8);
    13ba:	88 e0       	ldi	r24, 0x08	; 8
    13bc:	90 e0       	ldi	r25, 0x00	; 0
    13be:	0e 94 83 01 	call	0x306	; 0x306 <EEPROM_read>
				 convertServo2(datoeeprom, channel2A); //garra
    13c2:	61 e0       	ldi	r22, 0x01	; 1
    13c4:	0e 94 b0 0e 	call	0x1d60	; 0x1d60 <convertServo2>
				 
				 datoeeprom = EEPROM_read(9);  //brazo
    13c8:	89 e0       	ldi	r24, 0x09	; 9
    13ca:	90 e0       	ldi	r25, 0x00	; 0
    13cc:	0e 94 83 01 	call	0x306	; 0x306 <EEPROM_read>
				 convertServo(datoeeprom, channelA);
    13d0:	61 e0       	ldi	r22, 0x01	; 1
    13d2:	0e 94 67 0e 	call	0x1cce	; 0x1cce <convertServo>
				 
				 datoeeprom = EEPROM_read(10);  //codo
    13d6:	8a e0       	ldi	r24, 0x0A	; 10
    13d8:	90 e0       	ldi	r25, 0x00	; 0
    13da:	0e 94 83 01 	call	0x306	; 0x306 <EEPROM_read>
				 convertServo(datoeeprom, channelB);
    13de:	62 e0       	ldi	r22, 0x02	; 2
    13e0:	0e 94 67 0e 	call	0x1cce	; 0x1cce <convertServo>
				 
				 datoeeprom = EEPROM_read(11);  //rota
    13e4:	8b e0       	ldi	r24, 0x0B	; 11
    13e6:	90 e0       	ldi	r25, 0x00	; 0
    13e8:	0e 94 83 01 	call	0x306	; 0x306 <EEPROM_read>
				 convertServo2(datoeeprom, channel2B);
    13ec:	62 e0       	ldi	r22, 0x02	; 2
    13ee:	0e 94 b0 0e 	call	0x1d60	; 0x1d60 <convertServo2>
				 receivedChar = 0;
    13f2:	10 92 02 01 	sts	0x0102, r1	; 0x800102 <__data_end>
			}
			
			if(PIND & (1 << PIND7) || receivedChar == 'D'){
    13f6:	4f 99       	sbic	0x09, 7	; 9
    13f8:	04 c0       	rjmp	.+8      	; 0x1402 <__stack+0xb03>
    13fa:	80 91 02 01 	lds	r24, 0x0102	; 0x800102 <__data_end>
    13fe:	84 34       	cpi	r24, 0x44	; 68
    1400:	a1 f5       	brne	.+104    	; 0x146a <__stack+0xb6b>
    1402:	8f e5       	ldi	r24, 0x5F	; 95
    1404:	9a ee       	ldi	r25, 0xEA	; 234
    1406:	01 97       	sbiw	r24, 0x01	; 1
    1408:	f1 f7       	brne	.-4      	; 0x1406 <__stack+0xb07>
    140a:	00 c0       	rjmp	.+0      	; 0x140c <__stack+0xb0d>
    140c:	00 00       	nop
				_delay_ms(15);
				 activa2 = 1;
    140e:	81 e0       	ldi	r24, 0x01	; 1
    1410:	90 e0       	ldi	r25, 0x00	; 0
    1412:	90 93 20 01 	sts	0x0120, r25	; 0x800120 <activa2+0x1>
    1416:	80 93 1f 01 	sts	0x011F, r24	; 0x80011f <activa2>
				 int  datoeeprom = EEPROM_read(12);
    141a:	8c e0       	ldi	r24, 0x0C	; 12
    141c:	90 e0       	ldi	r25, 0x00	; 0
    141e:	0e 94 83 01 	call	0x306	; 0x306 <EEPROM_read>
				 convertServo2(datoeeprom, channel2A); //garra
    1422:	61 e0       	ldi	r22, 0x01	; 1
    1424:	0e 94 b0 0e 	call	0x1d60	; 0x1d60 <convertServo2>
				 
				 datoeeprom = EEPROM_read(13);  //brazo
    1428:	8d e0       	ldi	r24, 0x0D	; 13
    142a:	90 e0       	ldi	r25, 0x00	; 0
    142c:	0e 94 83 01 	call	0x306	; 0x306 <EEPROM_read>
				 convertServo(datoeeprom, channelA);
    1430:	61 e0       	ldi	r22, 0x01	; 1
    1432:	0e 94 67 0e 	call	0x1cce	; 0x1cce <convertServo>
				 
				 datoeeprom = EEPROM_read(14);  //codo
    1436:	8e e0       	ldi	r24, 0x0E	; 14
    1438:	90 e0       	ldi	r25, 0x00	; 0
    143a:	0e 94 83 01 	call	0x306	; 0x306 <EEPROM_read>
				 convertServo(datoeeprom, channelB);
    143e:	62 e0       	ldi	r22, 0x02	; 2
    1440:	0e 94 67 0e 	call	0x1cce	; 0x1cce <convertServo>
				 
				 datoeeprom = EEPROM_read(15);  //rota
    1444:	8f e0       	ldi	r24, 0x0F	; 15
    1446:	90 e0       	ldi	r25, 0x00	; 0
    1448:	0e 94 83 01 	call	0x306	; 0x306 <EEPROM_read>
				 convertServo2(datoeeprom, channel2B);
    144c:	62 e0       	ldi	r22, 0x02	; 2
    144e:	0e 94 b0 0e 	call	0x1d60	; 0x1d60 <convertServo2>
				 receivedChar = 0;
    1452:	10 92 02 01 	sts	0x0102, r1	; 0x800102 <__data_end>
    1456:	09 c0       	rjmp	.+18     	; 0x146a <__stack+0xb6b>
    1458:	9f ef       	ldi	r25, 0xFF	; 255
    145a:	26 e7       	ldi	r18, 0x76	; 118
    145c:	81 e0       	ldi	r24, 0x01	; 1
    145e:	91 50       	subi	r25, 0x01	; 1
    1460:	20 40       	sbci	r18, 0x00	; 0
    1462:	80 40       	sbci	r24, 0x00	; 0
    1464:	e1 f7       	brne	.-8      	; 0x145e <__stack+0xb5f>
    1466:	00 c0       	rjmp	.+0      	; 0x1468 <__stack+0xb69>
    1468:	00 00       	nop
			
			
			
			
			
			while ((PINB & (1 << PINB0)) == 0)   //While para evitar sumas indebidas
    146a:	18 9b       	sbis	0x03, 0	; 3
    146c:	f5 cf       	rjmp	.-22     	; 0x1458 <__stack+0xb59>
    146e:	ff c2       	rjmp	.+1534   	; 0x1a6e <__stack+0x116f>
		
		
		
		
		case 2: //Si se desea manipular al robot desde adafruit
			PORTD |=  (1 << DDD4) | (1 << DDD5) | (1 << DDD6);  //encender los led correspondientes
    1470:	8b b1       	in	r24, 0x0b	; 11
    1472:	80 67       	ori	r24, 0x70	; 112
    1474:	8b b9       	out	0x0b, r24	; 11
			activa3 = 1;
    1476:	81 e0       	ldi	r24, 0x01	; 1
    1478:	90 e0       	ldi	r25, 0x00	; 0
    147a:	90 93 1c 01 	sts	0x011C, r25	; 0x80011c <activa3+0x1>
    147e:	80 93 1b 01 	sts	0x011B, r24	; 0x80011b <activa3>
			
			if (receivedChar == 'g')      //Observar que servomotor se desea mover
    1482:	80 91 02 01 	lds	r24, 0x0102	; 0x800102 <__data_end>
    1486:	87 36       	cpi	r24, 0x67	; 103
    1488:	31 f4       	brne	.+12     	; 0x1496 <__stack+0xb97>
			{
				moverr = 1;
    148a:	81 e0       	ldi	r24, 0x01	; 1
    148c:	90 e0       	ldi	r25, 0x00	; 0
    148e:	90 93 16 01 	sts	0x0116, r25	; 0x800116 <moverr+0x1>
    1492:	80 93 15 01 	sts	0x0115, r24	; 0x800115 <moverr>
			}
			
		   if (receivedChar == 'a')
    1496:	80 91 02 01 	lds	r24, 0x0102	; 0x800102 <__data_end>
    149a:	81 36       	cpi	r24, 0x61	; 97
    149c:	31 f4       	brne	.+12     	; 0x14aa <__stack+0xbab>
			{
				moverr = 2;
    149e:	82 e0       	ldi	r24, 0x02	; 2
    14a0:	90 e0       	ldi	r25, 0x00	; 0
    14a2:	90 93 16 01 	sts	0x0116, r25	; 0x800116 <moverr+0x1>
    14a6:	80 93 15 01 	sts	0x0115, r24	; 0x800115 <moverr>
			}
			
			if (receivedChar == 'b')
    14aa:	80 91 02 01 	lds	r24, 0x0102	; 0x800102 <__data_end>
    14ae:	82 36       	cpi	r24, 0x62	; 98
    14b0:	31 f4       	brne	.+12     	; 0x14be <__stack+0xbbf>
			{
				moverr = 3;
    14b2:	83 e0       	ldi	r24, 0x03	; 3
    14b4:	90 e0       	ldi	r25, 0x00	; 0
    14b6:	90 93 16 01 	sts	0x0116, r25	; 0x800116 <moverr+0x1>
    14ba:	80 93 15 01 	sts	0x0115, r24	; 0x800115 <moverr>
			}
			
			if (receivedChar == 'c')
    14be:	80 91 02 01 	lds	r24, 0x0102	; 0x800102 <__data_end>
    14c2:	83 36       	cpi	r24, 0x63	; 99
    14c4:	31 f4       	brne	.+12     	; 0x14d2 <__stack+0xbd3>
			{
				moverr = 4;
    14c6:	84 e0       	ldi	r24, 0x04	; 4
    14c8:	90 e0       	ldi	r25, 0x00	; 0
    14ca:	90 93 16 01 	sts	0x0116, r25	; 0x800116 <moverr+0x1>
    14ce:	80 93 15 01 	sts	0x0115, r24	; 0x800115 <moverr>
			}
			
			
			if (moverr == 1)      //Ver que servo se desea mover
    14d2:	80 91 15 01 	lds	r24, 0x0115	; 0x800115 <moverr>
    14d6:	90 91 16 01 	lds	r25, 0x0116	; 0x800116 <moverr+0x1>
    14da:	01 97       	sbiw	r24, 0x01	; 1
    14dc:	09 f0       	breq	.+2      	; 0x14e0 <__stack+0xbe1>
    14de:	af c0       	rjmp	.+350    	; 0x163e <__stack+0xd3f>
			{
				switch(receivedChar){         //Enviar al servo el respectivo angulo 
    14e0:	e0 91 02 01 	lds	r30, 0x0102	; 0x800102 <__data_end>
    14e4:	8e 2f       	mov	r24, r30
    14e6:	90 e0       	ldi	r25, 0x00	; 0
    14e8:	fc 01       	movw	r30, r24
    14ea:	f0 97       	sbiw	r30, 0x30	; 48
    14ec:	e2 34       	cpi	r30, 0x42	; 66
    14ee:	f1 05       	cpc	r31, r1
    14f0:	08 f0       	brcs	.+2      	; 0x14f4 <__stack+0xbf5>
    14f2:	a5 c0       	rjmp	.+330    	; 0x163e <__stack+0xd3f>
    14f4:	ec 5c       	subi	r30, 0xCC	; 204
    14f6:	ff 4f       	sbci	r31, 0xFF	; 255
    14f8:	0c 94 14 0f 	jmp	0x1e28	; 0x1e28 <__tablejump2__>
					case '0':
					convertServo2(0, channel2A);
    14fc:	61 e0       	ldi	r22, 0x01	; 1
    14fe:	80 e0       	ldi	r24, 0x00	; 0
    1500:	90 e0       	ldi	r25, 0x00	; 0
    1502:	0e 94 b0 0e 	call	0x1d60	; 0x1d60 <convertServo2>
					break;
    1506:	9b c0       	rjmp	.+310    	; 0x163e <__stack+0xd3f>
					
					case '1':
					convertServo2(10, channel2A);
    1508:	61 e0       	ldi	r22, 0x01	; 1
    150a:	8a e0       	ldi	r24, 0x0A	; 10
    150c:	90 e0       	ldi	r25, 0x00	; 0
    150e:	0e 94 b0 0e 	call	0x1d60	; 0x1d60 <convertServo2>
					break;
    1512:	95 c0       	rjmp	.+298    	; 0x163e <__stack+0xd3f>
					
					case '2':
					convertServo2(20, channel2A);
    1514:	61 e0       	ldi	r22, 0x01	; 1
    1516:	84 e1       	ldi	r24, 0x14	; 20
    1518:	90 e0       	ldi	r25, 0x00	; 0
    151a:	0e 94 b0 0e 	call	0x1d60	; 0x1d60 <convertServo2>
					break;
    151e:	8f c0       	rjmp	.+286    	; 0x163e <__stack+0xd3f>
					
					case '3':
					convertServo2(30, channel2A);
    1520:	61 e0       	ldi	r22, 0x01	; 1
    1522:	8e e1       	ldi	r24, 0x1E	; 30
    1524:	90 e0       	ldi	r25, 0x00	; 0
    1526:	0e 94 b0 0e 	call	0x1d60	; 0x1d60 <convertServo2>
					break;
    152a:	89 c0       	rjmp	.+274    	; 0x163e <__stack+0xd3f>
					
					case '4':
					convertServo2(40, channel2A);
    152c:	61 e0       	ldi	r22, 0x01	; 1
    152e:	88 e2       	ldi	r24, 0x28	; 40
    1530:	90 e0       	ldi	r25, 0x00	; 0
    1532:	0e 94 b0 0e 	call	0x1d60	; 0x1d60 <convertServo2>
					break;
    1536:	83 c0       	rjmp	.+262    	; 0x163e <__stack+0xd3f>
					
					case '5':
					convertServo2(50, channel2A);
    1538:	61 e0       	ldi	r22, 0x01	; 1
    153a:	82 e3       	ldi	r24, 0x32	; 50
    153c:	90 e0       	ldi	r25, 0x00	; 0
    153e:	0e 94 b0 0e 	call	0x1d60	; 0x1d60 <convertServo2>
					break;
    1542:	7d c0       	rjmp	.+250    	; 0x163e <__stack+0xd3f>
					
					case '6':
					convertServo2(60, channel2A);
    1544:	61 e0       	ldi	r22, 0x01	; 1
    1546:	8c e3       	ldi	r24, 0x3C	; 60
    1548:	90 e0       	ldi	r25, 0x00	; 0
    154a:	0e 94 b0 0e 	call	0x1d60	; 0x1d60 <convertServo2>
					break;
    154e:	77 c0       	rjmp	.+238    	; 0x163e <__stack+0xd3f>
					
					case '7':
					convertServo2(70, channel2A);
    1550:	61 e0       	ldi	r22, 0x01	; 1
    1552:	86 e4       	ldi	r24, 0x46	; 70
    1554:	90 e0       	ldi	r25, 0x00	; 0
    1556:	0e 94 b0 0e 	call	0x1d60	; 0x1d60 <convertServo2>
					break;
    155a:	71 c0       	rjmp	.+226    	; 0x163e <__stack+0xd3f>
					
					case '8':
					convertServo2(80, channel2A);
    155c:	61 e0       	ldi	r22, 0x01	; 1
    155e:	80 e5       	ldi	r24, 0x50	; 80
    1560:	90 e0       	ldi	r25, 0x00	; 0
    1562:	0e 94 b0 0e 	call	0x1d60	; 0x1d60 <convertServo2>
					break;
    1566:	6b c0       	rjmp	.+214    	; 0x163e <__stack+0xd3f>
					
					case '9':
					convertServo2(90, channel2A);
    1568:	61 e0       	ldi	r22, 0x01	; 1
    156a:	8a e5       	ldi	r24, 0x5A	; 90
    156c:	90 e0       	ldi	r25, 0x00	; 0
    156e:	0e 94 b0 0e 	call	0x1d60	; 0x1d60 <convertServo2>
					break;
    1572:	65 c0       	rjmp	.+202    	; 0x163e <__stack+0xd3f>
					
					case 'A':
					convertServo2(100, channel2A);
    1574:	61 e0       	ldi	r22, 0x01	; 1
    1576:	84 e6       	ldi	r24, 0x64	; 100
    1578:	90 e0       	ldi	r25, 0x00	; 0
    157a:	0e 94 b0 0e 	call	0x1d60	; 0x1d60 <convertServo2>
					break;
    157e:	5f c0       	rjmp	.+190    	; 0x163e <__stack+0xd3f>
					
					case 'B':
					convertServo2(110, channel2A);
    1580:	61 e0       	ldi	r22, 0x01	; 1
    1582:	8e e6       	ldi	r24, 0x6E	; 110
    1584:	90 e0       	ldi	r25, 0x00	; 0
    1586:	0e 94 b0 0e 	call	0x1d60	; 0x1d60 <convertServo2>
					break;
    158a:	59 c0       	rjmp	.+178    	; 0x163e <__stack+0xd3f>
					
					case 'C':
					convertServo2(120, channel2A);
    158c:	61 e0       	ldi	r22, 0x01	; 1
    158e:	88 e7       	ldi	r24, 0x78	; 120
    1590:	90 e0       	ldi	r25, 0x00	; 0
    1592:	0e 94 b0 0e 	call	0x1d60	; 0x1d60 <convertServo2>
					break;
    1596:	53 c0       	rjmp	.+166    	; 0x163e <__stack+0xd3f>
					
					case 'D':
					convertServo2(130, channel2A);
    1598:	61 e0       	ldi	r22, 0x01	; 1
    159a:	82 e8       	ldi	r24, 0x82	; 130
    159c:	90 e0       	ldi	r25, 0x00	; 0
    159e:	0e 94 b0 0e 	call	0x1d60	; 0x1d60 <convertServo2>
					break;
    15a2:	4d c0       	rjmp	.+154    	; 0x163e <__stack+0xd3f>
					
					case 'e':
					convertServo2(140, channel2A);
    15a4:	61 e0       	ldi	r22, 0x01	; 1
    15a6:	8c e8       	ldi	r24, 0x8C	; 140
    15a8:	90 e0       	ldi	r25, 0x00	; 0
    15aa:	0e 94 b0 0e 	call	0x1d60	; 0x1d60 <convertServo2>
					break;
    15ae:	47 c0       	rjmp	.+142    	; 0x163e <__stack+0xd3f>
					
					case 'F':
					convertServo2(150, channel2A);
    15b0:	61 e0       	ldi	r22, 0x01	; 1
    15b2:	86 e9       	ldi	r24, 0x96	; 150
    15b4:	90 e0       	ldi	r25, 0x00	; 0
    15b6:	0e 94 b0 0e 	call	0x1d60	; 0x1d60 <convertServo2>
					break;
    15ba:	41 c0       	rjmp	.+130    	; 0x163e <__stack+0xd3f>
					
					case 'G':
					convertServo2(160, channel2A);
    15bc:	61 e0       	ldi	r22, 0x01	; 1
    15be:	80 ea       	ldi	r24, 0xA0	; 160
    15c0:	90 e0       	ldi	r25, 0x00	; 0
    15c2:	0e 94 b0 0e 	call	0x1d60	; 0x1d60 <convertServo2>
					break;
    15c6:	3b c0       	rjmp	.+118    	; 0x163e <__stack+0xd3f>
					
					case 'H':
					convertServo2(170, channel2A);
    15c8:	61 e0       	ldi	r22, 0x01	; 1
    15ca:	8a ea       	ldi	r24, 0xAA	; 170
    15cc:	90 e0       	ldi	r25, 0x00	; 0
    15ce:	0e 94 b0 0e 	call	0x1d60	; 0x1d60 <convertServo2>
					break;
    15d2:	35 c0       	rjmp	.+106    	; 0x163e <__stack+0xd3f>
					
					case 'I':
					convertServo2(180, channel2A);
    15d4:	61 e0       	ldi	r22, 0x01	; 1
    15d6:	84 eb       	ldi	r24, 0xB4	; 180
    15d8:	90 e0       	ldi	r25, 0x00	; 0
    15da:	0e 94 b0 0e 	call	0x1d60	; 0x1d60 <convertServo2>
					break;
    15de:	2f c0       	rjmp	.+94     	; 0x163e <__stack+0xd3f>
					
					case 'J':
					convertServo2(190, channel2A);
    15e0:	61 e0       	ldi	r22, 0x01	; 1
    15e2:	8e eb       	ldi	r24, 0xBE	; 190
    15e4:	90 e0       	ldi	r25, 0x00	; 0
    15e6:	0e 94 b0 0e 	call	0x1d60	; 0x1d60 <convertServo2>
					break;
    15ea:	29 c0       	rjmp	.+82     	; 0x163e <__stack+0xd3f>
					
					case 'K':
					convertServo2(200, channel2A);
    15ec:	61 e0       	ldi	r22, 0x01	; 1
    15ee:	88 ec       	ldi	r24, 0xC8	; 200
    15f0:	90 e0       	ldi	r25, 0x00	; 0
    15f2:	0e 94 b0 0e 	call	0x1d60	; 0x1d60 <convertServo2>
					break;
    15f6:	23 c0       	rjmp	.+70     	; 0x163e <__stack+0xd3f>
					
					case 'L':
					convertServo2(210, channel2A);
    15f8:	61 e0       	ldi	r22, 0x01	; 1
    15fa:	82 ed       	ldi	r24, 0xD2	; 210
    15fc:	90 e0       	ldi	r25, 0x00	; 0
    15fe:	0e 94 b0 0e 	call	0x1d60	; 0x1d60 <convertServo2>
					break;
    1602:	1d c0       	rjmp	.+58     	; 0x163e <__stack+0xd3f>
					
					case 'M':
					convertServo2(220, channel2A);
    1604:	61 e0       	ldi	r22, 0x01	; 1
    1606:	8c ed       	ldi	r24, 0xDC	; 220
    1608:	90 e0       	ldi	r25, 0x00	; 0
    160a:	0e 94 b0 0e 	call	0x1d60	; 0x1d60 <convertServo2>
					break;
    160e:	17 c0       	rjmp	.+46     	; 0x163e <__stack+0xd3f>
					
					case 'N':
					convertServo2(230, channel2A);
    1610:	61 e0       	ldi	r22, 0x01	; 1
    1612:	86 ee       	ldi	r24, 0xE6	; 230
    1614:	90 e0       	ldi	r25, 0x00	; 0
    1616:	0e 94 b0 0e 	call	0x1d60	; 0x1d60 <convertServo2>
					break;
    161a:	11 c0       	rjmp	.+34     	; 0x163e <__stack+0xd3f>
					
					case 'O':
					convertServo2(240, channel2A);
    161c:	61 e0       	ldi	r22, 0x01	; 1
    161e:	80 ef       	ldi	r24, 0xF0	; 240
    1620:	90 e0       	ldi	r25, 0x00	; 0
    1622:	0e 94 b0 0e 	call	0x1d60	; 0x1d60 <convertServo2>
					break;
    1626:	0b c0       	rjmp	.+22     	; 0x163e <__stack+0xd3f>
					
					case 'P':
					convertServo2(250, channel2A);
    1628:	61 e0       	ldi	r22, 0x01	; 1
    162a:	8a ef       	ldi	r24, 0xFA	; 250
    162c:	90 e0       	ldi	r25, 0x00	; 0
    162e:	0e 94 b0 0e 	call	0x1d60	; 0x1d60 <convertServo2>
					break;
    1632:	05 c0       	rjmp	.+10     	; 0x163e <__stack+0xd3f>
					
					case 'q':
					convertServo2(255, channel2A);
    1634:	61 e0       	ldi	r22, 0x01	; 1
    1636:	8f ef       	ldi	r24, 0xFF	; 255
    1638:	90 e0       	ldi	r25, 0x00	; 0
    163a:	0e 94 b0 0e 	call	0x1d60	; 0x1d60 <convertServo2>
					break;
					
				}
			}
			
		 if (moverr == 2)
    163e:	80 91 15 01 	lds	r24, 0x0115	; 0x800115 <moverr>
    1642:	90 91 16 01 	lds	r25, 0x0116	; 0x800116 <moverr+0x1>
    1646:	02 97       	sbiw	r24, 0x02	; 2
    1648:	09 f0       	breq	.+2      	; 0x164c <__stack+0xd4d>
    164a:	af c0       	rjmp	.+350    	; 0x17aa <__stack+0xeab>
			{
				switch(receivedChar){
    164c:	e0 91 02 01 	lds	r30, 0x0102	; 0x800102 <__data_end>
    1650:	8e 2f       	mov	r24, r30
    1652:	90 e0       	ldi	r25, 0x00	; 0
    1654:	fc 01       	movw	r30, r24
    1656:	f0 97       	sbiw	r30, 0x30	; 48
    1658:	e2 34       	cpi	r30, 0x42	; 66
    165a:	f1 05       	cpc	r31, r1
    165c:	08 f0       	brcs	.+2      	; 0x1660 <__stack+0xd61>
    165e:	a5 c0       	rjmp	.+330    	; 0x17aa <__stack+0xeab>
    1660:	ea 58       	subi	r30, 0x8A	; 138
    1662:	ff 4f       	sbci	r31, 0xFF	; 255
    1664:	0c 94 14 0f 	jmp	0x1e28	; 0x1e28 <__tablejump2__>
					case '0':
					convertServo(0, channelB);
    1668:	62 e0       	ldi	r22, 0x02	; 2
    166a:	80 e0       	ldi	r24, 0x00	; 0
    166c:	90 e0       	ldi	r25, 0x00	; 0
    166e:	0e 94 67 0e 	call	0x1cce	; 0x1cce <convertServo>
					break;
    1672:	9b c0       	rjmp	.+310    	; 0x17aa <__stack+0xeab>
					
					case '1':
					convertServo(10, channelB);
    1674:	62 e0       	ldi	r22, 0x02	; 2
    1676:	8a e0       	ldi	r24, 0x0A	; 10
    1678:	90 e0       	ldi	r25, 0x00	; 0
    167a:	0e 94 67 0e 	call	0x1cce	; 0x1cce <convertServo>
					break;
    167e:	95 c0       	rjmp	.+298    	; 0x17aa <__stack+0xeab>
					
					case '2':
					convertServo(20, channelB);
    1680:	62 e0       	ldi	r22, 0x02	; 2
    1682:	84 e1       	ldi	r24, 0x14	; 20
    1684:	90 e0       	ldi	r25, 0x00	; 0
    1686:	0e 94 67 0e 	call	0x1cce	; 0x1cce <convertServo>
					break;
    168a:	8f c0       	rjmp	.+286    	; 0x17aa <__stack+0xeab>
					
					case '3':
					convertServo(30, channelB);
    168c:	62 e0       	ldi	r22, 0x02	; 2
    168e:	8e e1       	ldi	r24, 0x1E	; 30
    1690:	90 e0       	ldi	r25, 0x00	; 0
    1692:	0e 94 67 0e 	call	0x1cce	; 0x1cce <convertServo>
					break;
    1696:	89 c0       	rjmp	.+274    	; 0x17aa <__stack+0xeab>
					
					case '4':
					convertServo(40, channelB);
    1698:	62 e0       	ldi	r22, 0x02	; 2
    169a:	88 e2       	ldi	r24, 0x28	; 40
    169c:	90 e0       	ldi	r25, 0x00	; 0
    169e:	0e 94 67 0e 	call	0x1cce	; 0x1cce <convertServo>
					break;
    16a2:	83 c0       	rjmp	.+262    	; 0x17aa <__stack+0xeab>
					
					case '5':
					convertServo(50, channelB);
    16a4:	62 e0       	ldi	r22, 0x02	; 2
    16a6:	82 e3       	ldi	r24, 0x32	; 50
    16a8:	90 e0       	ldi	r25, 0x00	; 0
    16aa:	0e 94 67 0e 	call	0x1cce	; 0x1cce <convertServo>
					break;
    16ae:	7d c0       	rjmp	.+250    	; 0x17aa <__stack+0xeab>
					
					case '6':
					convertServo(60, channelB);
    16b0:	62 e0       	ldi	r22, 0x02	; 2
    16b2:	8c e3       	ldi	r24, 0x3C	; 60
    16b4:	90 e0       	ldi	r25, 0x00	; 0
    16b6:	0e 94 67 0e 	call	0x1cce	; 0x1cce <convertServo>
					break;
    16ba:	77 c0       	rjmp	.+238    	; 0x17aa <__stack+0xeab>
					
					case '7':
					convertServo(70, channelB);
    16bc:	62 e0       	ldi	r22, 0x02	; 2
    16be:	86 e4       	ldi	r24, 0x46	; 70
    16c0:	90 e0       	ldi	r25, 0x00	; 0
    16c2:	0e 94 67 0e 	call	0x1cce	; 0x1cce <convertServo>
					break;
    16c6:	71 c0       	rjmp	.+226    	; 0x17aa <__stack+0xeab>
					
					case '8':
					convertServo(80, channelB);
    16c8:	62 e0       	ldi	r22, 0x02	; 2
    16ca:	80 e5       	ldi	r24, 0x50	; 80
    16cc:	90 e0       	ldi	r25, 0x00	; 0
    16ce:	0e 94 67 0e 	call	0x1cce	; 0x1cce <convertServo>
					break;
    16d2:	6b c0       	rjmp	.+214    	; 0x17aa <__stack+0xeab>
					
					case '9':
					convertServo(90, channelB);
    16d4:	62 e0       	ldi	r22, 0x02	; 2
    16d6:	8a e5       	ldi	r24, 0x5A	; 90
    16d8:	90 e0       	ldi	r25, 0x00	; 0
    16da:	0e 94 67 0e 	call	0x1cce	; 0x1cce <convertServo>
					break;
    16de:	65 c0       	rjmp	.+202    	; 0x17aa <__stack+0xeab>
					
					case 'A':
					convertServo(100, channelB);
    16e0:	62 e0       	ldi	r22, 0x02	; 2
    16e2:	84 e6       	ldi	r24, 0x64	; 100
    16e4:	90 e0       	ldi	r25, 0x00	; 0
    16e6:	0e 94 67 0e 	call	0x1cce	; 0x1cce <convertServo>
					break;
    16ea:	5f c0       	rjmp	.+190    	; 0x17aa <__stack+0xeab>
					
					case 'B':
					convertServo(110, channelB);
    16ec:	62 e0       	ldi	r22, 0x02	; 2
    16ee:	8e e6       	ldi	r24, 0x6E	; 110
    16f0:	90 e0       	ldi	r25, 0x00	; 0
    16f2:	0e 94 67 0e 	call	0x1cce	; 0x1cce <convertServo>
					break;
    16f6:	59 c0       	rjmp	.+178    	; 0x17aa <__stack+0xeab>
					
					case 'C':
					convertServo(120, channelB);
    16f8:	62 e0       	ldi	r22, 0x02	; 2
    16fa:	88 e7       	ldi	r24, 0x78	; 120
    16fc:	90 e0       	ldi	r25, 0x00	; 0
    16fe:	0e 94 67 0e 	call	0x1cce	; 0x1cce <convertServo>
					break;
    1702:	53 c0       	rjmp	.+166    	; 0x17aa <__stack+0xeab>
					
					case 'D':
					convertServo(130, channelB);
    1704:	62 e0       	ldi	r22, 0x02	; 2
    1706:	82 e8       	ldi	r24, 0x82	; 130
    1708:	90 e0       	ldi	r25, 0x00	; 0
    170a:	0e 94 67 0e 	call	0x1cce	; 0x1cce <convertServo>
					break;
    170e:	4d c0       	rjmp	.+154    	; 0x17aa <__stack+0xeab>
					
					case 'e':
					convertServo(140, channelB);
    1710:	62 e0       	ldi	r22, 0x02	; 2
    1712:	8c e8       	ldi	r24, 0x8C	; 140
    1714:	90 e0       	ldi	r25, 0x00	; 0
    1716:	0e 94 67 0e 	call	0x1cce	; 0x1cce <convertServo>
					break;
    171a:	47 c0       	rjmp	.+142    	; 0x17aa <__stack+0xeab>
					
					case 'F':
					convertServo(150, channelB);
    171c:	62 e0       	ldi	r22, 0x02	; 2
    171e:	86 e9       	ldi	r24, 0x96	; 150
    1720:	90 e0       	ldi	r25, 0x00	; 0
    1722:	0e 94 67 0e 	call	0x1cce	; 0x1cce <convertServo>
					break;
    1726:	41 c0       	rjmp	.+130    	; 0x17aa <__stack+0xeab>
					
					case 'G':
					convertServo(160, channelB);
    1728:	62 e0       	ldi	r22, 0x02	; 2
    172a:	80 ea       	ldi	r24, 0xA0	; 160
    172c:	90 e0       	ldi	r25, 0x00	; 0
    172e:	0e 94 67 0e 	call	0x1cce	; 0x1cce <convertServo>
					break;
    1732:	3b c0       	rjmp	.+118    	; 0x17aa <__stack+0xeab>
					
					case 'H':
					convertServo(170, channelB);
    1734:	62 e0       	ldi	r22, 0x02	; 2
    1736:	8a ea       	ldi	r24, 0xAA	; 170
    1738:	90 e0       	ldi	r25, 0x00	; 0
    173a:	0e 94 67 0e 	call	0x1cce	; 0x1cce <convertServo>
					break;
    173e:	35 c0       	rjmp	.+106    	; 0x17aa <__stack+0xeab>
					
					case 'I':
					convertServo(180, channelB);
    1740:	62 e0       	ldi	r22, 0x02	; 2
    1742:	84 eb       	ldi	r24, 0xB4	; 180
    1744:	90 e0       	ldi	r25, 0x00	; 0
    1746:	0e 94 67 0e 	call	0x1cce	; 0x1cce <convertServo>
					break;
    174a:	2f c0       	rjmp	.+94     	; 0x17aa <__stack+0xeab>
					
					case 'J':
					convertServo(190, channelB);
    174c:	62 e0       	ldi	r22, 0x02	; 2
    174e:	8e eb       	ldi	r24, 0xBE	; 190
    1750:	90 e0       	ldi	r25, 0x00	; 0
    1752:	0e 94 67 0e 	call	0x1cce	; 0x1cce <convertServo>
					break;
    1756:	29 c0       	rjmp	.+82     	; 0x17aa <__stack+0xeab>
					
					case 'K':
					convertServo(200, channelB);
    1758:	62 e0       	ldi	r22, 0x02	; 2
    175a:	88 ec       	ldi	r24, 0xC8	; 200
    175c:	90 e0       	ldi	r25, 0x00	; 0
    175e:	0e 94 67 0e 	call	0x1cce	; 0x1cce <convertServo>
					break;
    1762:	23 c0       	rjmp	.+70     	; 0x17aa <__stack+0xeab>
					
					case 'L':
					convertServo(210, channelB);
    1764:	62 e0       	ldi	r22, 0x02	; 2
    1766:	82 ed       	ldi	r24, 0xD2	; 210
    1768:	90 e0       	ldi	r25, 0x00	; 0
    176a:	0e 94 67 0e 	call	0x1cce	; 0x1cce <convertServo>
					break;
    176e:	1d c0       	rjmp	.+58     	; 0x17aa <__stack+0xeab>
					
					case 'M':
					convertServo(220, channelB);
    1770:	62 e0       	ldi	r22, 0x02	; 2
    1772:	8c ed       	ldi	r24, 0xDC	; 220
    1774:	90 e0       	ldi	r25, 0x00	; 0
    1776:	0e 94 67 0e 	call	0x1cce	; 0x1cce <convertServo>
					break;
    177a:	17 c0       	rjmp	.+46     	; 0x17aa <__stack+0xeab>
					
					case 'N':
					convertServo(230, channelB);
    177c:	62 e0       	ldi	r22, 0x02	; 2
    177e:	86 ee       	ldi	r24, 0xE6	; 230
    1780:	90 e0       	ldi	r25, 0x00	; 0
    1782:	0e 94 67 0e 	call	0x1cce	; 0x1cce <convertServo>
					break;
    1786:	11 c0       	rjmp	.+34     	; 0x17aa <__stack+0xeab>
					
					case 'O':
					convertServo(240, channelB);
    1788:	62 e0       	ldi	r22, 0x02	; 2
    178a:	80 ef       	ldi	r24, 0xF0	; 240
    178c:	90 e0       	ldi	r25, 0x00	; 0
    178e:	0e 94 67 0e 	call	0x1cce	; 0x1cce <convertServo>
					break;
    1792:	0b c0       	rjmp	.+22     	; 0x17aa <__stack+0xeab>
					
					case 'P':
					convertServo(250, channelB);
    1794:	62 e0       	ldi	r22, 0x02	; 2
    1796:	8a ef       	ldi	r24, 0xFA	; 250
    1798:	90 e0       	ldi	r25, 0x00	; 0
    179a:	0e 94 67 0e 	call	0x1cce	; 0x1cce <convertServo>
					break;
    179e:	05 c0       	rjmp	.+10     	; 0x17aa <__stack+0xeab>
					
					case 'q':
					convertServo(255, channelB);
    17a0:	62 e0       	ldi	r22, 0x02	; 2
    17a2:	8f ef       	ldi	r24, 0xFF	; 255
    17a4:	90 e0       	ldi	r25, 0x00	; 0
    17a6:	0e 94 67 0e 	call	0x1cce	; 0x1cce <convertServo>
					break;
					
				}
			}
			
		   if (moverr == 3)
    17aa:	80 91 15 01 	lds	r24, 0x0115	; 0x800115 <moverr>
    17ae:	90 91 16 01 	lds	r25, 0x0116	; 0x800116 <moverr+0x1>
    17b2:	03 97       	sbiw	r24, 0x03	; 3
    17b4:	09 f0       	breq	.+2      	; 0x17b8 <__stack+0xeb9>
    17b6:	a3 c0       	rjmp	.+326    	; 0x18fe <__stack+0xfff>
			{
				switch(receivedChar){
    17b8:	e0 91 02 01 	lds	r30, 0x0102	; 0x800102 <__data_end>
    17bc:	8e 2f       	mov	r24, r30
    17be:	90 e0       	ldi	r25, 0x00	; 0
    17c0:	fc 01       	movw	r30, r24
    17c2:	f0 97       	sbiw	r30, 0x30	; 48
    17c4:	e6 33       	cpi	r30, 0x36	; 54
    17c6:	f1 05       	cpc	r31, r1
    17c8:	08 f0       	brcs	.+2      	; 0x17cc <__stack+0xecd>
    17ca:	99 c0       	rjmp	.+306    	; 0x18fe <__stack+0xfff>
    17cc:	e8 54       	subi	r30, 0x48	; 72
    17ce:	ff 4f       	sbci	r31, 0xFF	; 255
    17d0:	0c 94 14 0f 	jmp	0x1e28	; 0x1e28 <__tablejump2__>
					case '0':
					convertServo(0, channelA);
    17d4:	61 e0       	ldi	r22, 0x01	; 1
    17d6:	80 e0       	ldi	r24, 0x00	; 0
    17d8:	90 e0       	ldi	r25, 0x00	; 0
    17da:	0e 94 67 0e 	call	0x1cce	; 0x1cce <convertServo>
					break;
    17de:	8f c0       	rjmp	.+286    	; 0x18fe <__stack+0xfff>
					
					case '1':
					convertServo(10, channelA);
    17e0:	61 e0       	ldi	r22, 0x01	; 1
    17e2:	8a e0       	ldi	r24, 0x0A	; 10
    17e4:	90 e0       	ldi	r25, 0x00	; 0
    17e6:	0e 94 67 0e 	call	0x1cce	; 0x1cce <convertServo>
					break;
    17ea:	89 c0       	rjmp	.+274    	; 0x18fe <__stack+0xfff>
					
					case '2':
					convertServo(20, channelA);
    17ec:	61 e0       	ldi	r22, 0x01	; 1
    17ee:	84 e1       	ldi	r24, 0x14	; 20
    17f0:	90 e0       	ldi	r25, 0x00	; 0
    17f2:	0e 94 67 0e 	call	0x1cce	; 0x1cce <convertServo>
					break;
    17f6:	83 c0       	rjmp	.+262    	; 0x18fe <__stack+0xfff>
					
					case '3':
					convertServo(30, channelA);
    17f8:	61 e0       	ldi	r22, 0x01	; 1
    17fa:	8e e1       	ldi	r24, 0x1E	; 30
    17fc:	90 e0       	ldi	r25, 0x00	; 0
    17fe:	0e 94 67 0e 	call	0x1cce	; 0x1cce <convertServo>
					break;
    1802:	7d c0       	rjmp	.+250    	; 0x18fe <__stack+0xfff>
					
					case '4':
					convertServo(40, channelA);
    1804:	61 e0       	ldi	r22, 0x01	; 1
    1806:	88 e2       	ldi	r24, 0x28	; 40
    1808:	90 e0       	ldi	r25, 0x00	; 0
    180a:	0e 94 67 0e 	call	0x1cce	; 0x1cce <convertServo>
					break;
    180e:	77 c0       	rjmp	.+238    	; 0x18fe <__stack+0xfff>
					
					case '5':
					convertServo(50, channelA);
    1810:	61 e0       	ldi	r22, 0x01	; 1
    1812:	82 e3       	ldi	r24, 0x32	; 50
    1814:	90 e0       	ldi	r25, 0x00	; 0
    1816:	0e 94 67 0e 	call	0x1cce	; 0x1cce <convertServo>
					break;
    181a:	71 c0       	rjmp	.+226    	; 0x18fe <__stack+0xfff>
					
					case '6':
					convertServo(60, channelA);
    181c:	61 e0       	ldi	r22, 0x01	; 1
    181e:	8c e3       	ldi	r24, 0x3C	; 60
    1820:	90 e0       	ldi	r25, 0x00	; 0
    1822:	0e 94 67 0e 	call	0x1cce	; 0x1cce <convertServo>
					break;
    1826:	6b c0       	rjmp	.+214    	; 0x18fe <__stack+0xfff>
					
					case '7':
					convertServo(70, channelA);
    1828:	61 e0       	ldi	r22, 0x01	; 1
    182a:	86 e4       	ldi	r24, 0x46	; 70
    182c:	90 e0       	ldi	r25, 0x00	; 0
    182e:	0e 94 67 0e 	call	0x1cce	; 0x1cce <convertServo>
					break;
    1832:	65 c0       	rjmp	.+202    	; 0x18fe <__stack+0xfff>
					
					case '8':
					convertServo(80, channelA);
    1834:	61 e0       	ldi	r22, 0x01	; 1
    1836:	80 e5       	ldi	r24, 0x50	; 80
    1838:	90 e0       	ldi	r25, 0x00	; 0
    183a:	0e 94 67 0e 	call	0x1cce	; 0x1cce <convertServo>
					break;
    183e:	5f c0       	rjmp	.+190    	; 0x18fe <__stack+0xfff>
					
					case '9':
					convertServo(90, channelA);
    1840:	61 e0       	ldi	r22, 0x01	; 1
    1842:	8a e5       	ldi	r24, 0x5A	; 90
    1844:	90 e0       	ldi	r25, 0x00	; 0
    1846:	0e 94 67 0e 	call	0x1cce	; 0x1cce <convertServo>
					break;
    184a:	59 c0       	rjmp	.+178    	; 0x18fe <__stack+0xfff>
					
					case 'A':
					convertServo(100, channelA);
    184c:	61 e0       	ldi	r22, 0x01	; 1
    184e:	84 e6       	ldi	r24, 0x64	; 100
    1850:	90 e0       	ldi	r25, 0x00	; 0
    1852:	0e 94 67 0e 	call	0x1cce	; 0x1cce <convertServo>
					break;
    1856:	53 c0       	rjmp	.+166    	; 0x18fe <__stack+0xfff>
					
					case 'B':
					convertServo(110, channelA);
    1858:	61 e0       	ldi	r22, 0x01	; 1
    185a:	8e e6       	ldi	r24, 0x6E	; 110
    185c:	90 e0       	ldi	r25, 0x00	; 0
    185e:	0e 94 67 0e 	call	0x1cce	; 0x1cce <convertServo>
					break;
    1862:	4d c0       	rjmp	.+154    	; 0x18fe <__stack+0xfff>
					
					case 'C':
					convertServo(120, channelA);
    1864:	61 e0       	ldi	r22, 0x01	; 1
    1866:	88 e7       	ldi	r24, 0x78	; 120
    1868:	90 e0       	ldi	r25, 0x00	; 0
    186a:	0e 94 67 0e 	call	0x1cce	; 0x1cce <convertServo>
					break;
    186e:	47 c0       	rjmp	.+142    	; 0x18fe <__stack+0xfff>
					
					case 'D':
					convertServo(130, channelA);
    1870:	61 e0       	ldi	r22, 0x01	; 1
    1872:	82 e8       	ldi	r24, 0x82	; 130
    1874:	90 e0       	ldi	r25, 0x00	; 0
    1876:	0e 94 67 0e 	call	0x1cce	; 0x1cce <convertServo>
					break;
    187a:	41 c0       	rjmp	.+130    	; 0x18fe <__stack+0xfff>
					
					case 'e':
					convertServo(140, channelA);
    187c:	61 e0       	ldi	r22, 0x01	; 1
    187e:	8c e8       	ldi	r24, 0x8C	; 140
    1880:	90 e0       	ldi	r25, 0x00	; 0
    1882:	0e 94 67 0e 	call	0x1cce	; 0x1cce <convertServo>
					break;
    1886:	3b c0       	rjmp	.+118    	; 0x18fe <__stack+0xfff>
					
					case 'F':
					convertServo(150, channelA);
    1888:	61 e0       	ldi	r22, 0x01	; 1
    188a:	86 e9       	ldi	r24, 0x96	; 150
    188c:	90 e0       	ldi	r25, 0x00	; 0
    188e:	0e 94 67 0e 	call	0x1cce	; 0x1cce <convertServo>
					break;
    1892:	35 c0       	rjmp	.+106    	; 0x18fe <__stack+0xfff>
					
					case 'G':
					convertServo(160, channelA);
    1894:	61 e0       	ldi	r22, 0x01	; 1
    1896:	80 ea       	ldi	r24, 0xA0	; 160
    1898:	90 e0       	ldi	r25, 0x00	; 0
    189a:	0e 94 67 0e 	call	0x1cce	; 0x1cce <convertServo>
					break;
    189e:	2f c0       	rjmp	.+94     	; 0x18fe <__stack+0xfff>
					
					case 'H':
					convertServo(170, channelA);
    18a0:	61 e0       	ldi	r22, 0x01	; 1
    18a2:	8a ea       	ldi	r24, 0xAA	; 170
    18a4:	90 e0       	ldi	r25, 0x00	; 0
    18a6:	0e 94 67 0e 	call	0x1cce	; 0x1cce <convertServo>
					break;
    18aa:	29 c0       	rjmp	.+82     	; 0x18fe <__stack+0xfff>
					
					case 'I':
					convertServo(180, channelA);
    18ac:	61 e0       	ldi	r22, 0x01	; 1
    18ae:	84 eb       	ldi	r24, 0xB4	; 180
    18b0:	90 e0       	ldi	r25, 0x00	; 0
    18b2:	0e 94 67 0e 	call	0x1cce	; 0x1cce <convertServo>
					break;
    18b6:	23 c0       	rjmp	.+70     	; 0x18fe <__stack+0xfff>
					
					case 'J':
					convertServo(190, channelA);
    18b8:	61 e0       	ldi	r22, 0x01	; 1
    18ba:	8e eb       	ldi	r24, 0xBE	; 190
    18bc:	90 e0       	ldi	r25, 0x00	; 0
    18be:	0e 94 67 0e 	call	0x1cce	; 0x1cce <convertServo>
					break;
    18c2:	1d c0       	rjmp	.+58     	; 0x18fe <__stack+0xfff>
					
					case 'K':
					convertServo(200, channelA);
    18c4:	61 e0       	ldi	r22, 0x01	; 1
    18c6:	88 ec       	ldi	r24, 0xC8	; 200
    18c8:	90 e0       	ldi	r25, 0x00	; 0
    18ca:	0e 94 67 0e 	call	0x1cce	; 0x1cce <convertServo>
					break;
    18ce:	17 c0       	rjmp	.+46     	; 0x18fe <__stack+0xfff>
					
					case 'L':
					convertServo(210, channelA);
    18d0:	61 e0       	ldi	r22, 0x01	; 1
    18d2:	82 ed       	ldi	r24, 0xD2	; 210
    18d4:	90 e0       	ldi	r25, 0x00	; 0
    18d6:	0e 94 67 0e 	call	0x1cce	; 0x1cce <convertServo>
					break;
    18da:	11 c0       	rjmp	.+34     	; 0x18fe <__stack+0xfff>
					
					case 'M':
					convertServo(220, channelA);
    18dc:	61 e0       	ldi	r22, 0x01	; 1
    18de:	8c ed       	ldi	r24, 0xDC	; 220
    18e0:	90 e0       	ldi	r25, 0x00	; 0
    18e2:	0e 94 67 0e 	call	0x1cce	; 0x1cce <convertServo>
					break;
    18e6:	0b c0       	rjmp	.+22     	; 0x18fe <__stack+0xfff>
					
					case 'N':
					convertServo(230, channelA);
    18e8:	61 e0       	ldi	r22, 0x01	; 1
    18ea:	86 ee       	ldi	r24, 0xE6	; 230
    18ec:	90 e0       	ldi	r25, 0x00	; 0
    18ee:	0e 94 67 0e 	call	0x1cce	; 0x1cce <convertServo>
					break;
    18f2:	05 c0       	rjmp	.+10     	; 0x18fe <__stack+0xfff>
					
					case 'O':
					convertServo(240, channelA);
    18f4:	61 e0       	ldi	r22, 0x01	; 1
    18f6:	80 ef       	ldi	r24, 0xF0	; 240
    18f8:	90 e0       	ldi	r25, 0x00	; 0
    18fa:	0e 94 67 0e 	call	0x1cce	; 0x1cce <convertServo>
					
					
				}
			}
			
			if (moverr == 4)
    18fe:	80 91 15 01 	lds	r24, 0x0115	; 0x800115 <moverr>
    1902:	90 91 16 01 	lds	r25, 0x0116	; 0x800116 <moverr+0x1>
    1906:	04 97       	sbiw	r24, 0x04	; 4
    1908:	09 f0       	breq	.+2      	; 0x190c <__stack+0x100d>
    190a:	af c0       	rjmp	.+350    	; 0x1a6a <__stack+0x116b>
			{
				switch(receivedChar){
    190c:	e0 91 02 01 	lds	r30, 0x0102	; 0x800102 <__data_end>
    1910:	8e 2f       	mov	r24, r30
    1912:	90 e0       	ldi	r25, 0x00	; 0
    1914:	fc 01       	movw	r30, r24
    1916:	f0 97       	sbiw	r30, 0x30	; 48
    1918:	e2 34       	cpi	r30, 0x42	; 66
    191a:	f1 05       	cpc	r31, r1
    191c:	08 f0       	brcs	.+2      	; 0x1920 <__stack+0x1021>
    191e:	a5 c0       	rjmp	.+330    	; 0x1a6a <__stack+0x116b>
    1920:	e2 51       	subi	r30, 0x12	; 18
    1922:	ff 4f       	sbci	r31, 0xFF	; 255
    1924:	0c 94 14 0f 	jmp	0x1e28	; 0x1e28 <__tablejump2__>
					case '0':
					convertServo2(0, channel2B);
    1928:	62 e0       	ldi	r22, 0x02	; 2
    192a:	80 e0       	ldi	r24, 0x00	; 0
    192c:	90 e0       	ldi	r25, 0x00	; 0
    192e:	0e 94 b0 0e 	call	0x1d60	; 0x1d60 <convertServo2>
					break;
    1932:	9b c0       	rjmp	.+310    	; 0x1a6a <__stack+0x116b>
					
					case '1':
					convertServo2(10, channel2B);
    1934:	62 e0       	ldi	r22, 0x02	; 2
    1936:	8a e0       	ldi	r24, 0x0A	; 10
    1938:	90 e0       	ldi	r25, 0x00	; 0
    193a:	0e 94 b0 0e 	call	0x1d60	; 0x1d60 <convertServo2>
					break;
    193e:	95 c0       	rjmp	.+298    	; 0x1a6a <__stack+0x116b>
					
					case '2':
					convertServo2(20, channel2B);
    1940:	62 e0       	ldi	r22, 0x02	; 2
    1942:	84 e1       	ldi	r24, 0x14	; 20
    1944:	90 e0       	ldi	r25, 0x00	; 0
    1946:	0e 94 b0 0e 	call	0x1d60	; 0x1d60 <convertServo2>
					break;
    194a:	8f c0       	rjmp	.+286    	; 0x1a6a <__stack+0x116b>
					
					case '3':
					convertServo2(30, channel2B);
    194c:	62 e0       	ldi	r22, 0x02	; 2
    194e:	8e e1       	ldi	r24, 0x1E	; 30
    1950:	90 e0       	ldi	r25, 0x00	; 0
    1952:	0e 94 b0 0e 	call	0x1d60	; 0x1d60 <convertServo2>
					break;
    1956:	89 c0       	rjmp	.+274    	; 0x1a6a <__stack+0x116b>
					
					case '4':
					convertServo2(40, channel2B);
    1958:	62 e0       	ldi	r22, 0x02	; 2
    195a:	88 e2       	ldi	r24, 0x28	; 40
    195c:	90 e0       	ldi	r25, 0x00	; 0
    195e:	0e 94 b0 0e 	call	0x1d60	; 0x1d60 <convertServo2>
					break;
    1962:	83 c0       	rjmp	.+262    	; 0x1a6a <__stack+0x116b>
					
					case '5':
					convertServo2(50, channel2B);
    1964:	62 e0       	ldi	r22, 0x02	; 2
    1966:	82 e3       	ldi	r24, 0x32	; 50
    1968:	90 e0       	ldi	r25, 0x00	; 0
    196a:	0e 94 b0 0e 	call	0x1d60	; 0x1d60 <convertServo2>
					break;
    196e:	7d c0       	rjmp	.+250    	; 0x1a6a <__stack+0x116b>
					
					case '6':
					convertServo2(60, channel2B);
    1970:	62 e0       	ldi	r22, 0x02	; 2
    1972:	8c e3       	ldi	r24, 0x3C	; 60
    1974:	90 e0       	ldi	r25, 0x00	; 0
    1976:	0e 94 b0 0e 	call	0x1d60	; 0x1d60 <convertServo2>
					break;
    197a:	77 c0       	rjmp	.+238    	; 0x1a6a <__stack+0x116b>
					
					case '7':
					convertServo2(70, channel2B);
    197c:	62 e0       	ldi	r22, 0x02	; 2
    197e:	86 e4       	ldi	r24, 0x46	; 70
    1980:	90 e0       	ldi	r25, 0x00	; 0
    1982:	0e 94 b0 0e 	call	0x1d60	; 0x1d60 <convertServo2>
					break;
    1986:	71 c0       	rjmp	.+226    	; 0x1a6a <__stack+0x116b>
					
					case '8':
					convertServo2(80, channel2B);
    1988:	62 e0       	ldi	r22, 0x02	; 2
    198a:	80 e5       	ldi	r24, 0x50	; 80
    198c:	90 e0       	ldi	r25, 0x00	; 0
    198e:	0e 94 b0 0e 	call	0x1d60	; 0x1d60 <convertServo2>
					break;
    1992:	6b c0       	rjmp	.+214    	; 0x1a6a <__stack+0x116b>
					
					case '9':
					convertServo2(90, channel2B);
    1994:	62 e0       	ldi	r22, 0x02	; 2
    1996:	8a e5       	ldi	r24, 0x5A	; 90
    1998:	90 e0       	ldi	r25, 0x00	; 0
    199a:	0e 94 b0 0e 	call	0x1d60	; 0x1d60 <convertServo2>
					break;
    199e:	65 c0       	rjmp	.+202    	; 0x1a6a <__stack+0x116b>
					
					case 'A':
					convertServo2(100, channel2B);
    19a0:	62 e0       	ldi	r22, 0x02	; 2
    19a2:	84 e6       	ldi	r24, 0x64	; 100
    19a4:	90 e0       	ldi	r25, 0x00	; 0
    19a6:	0e 94 b0 0e 	call	0x1d60	; 0x1d60 <convertServo2>
					break;
    19aa:	5f c0       	rjmp	.+190    	; 0x1a6a <__stack+0x116b>
					
					case 'B':
					convertServo2(110, channel2B);
    19ac:	62 e0       	ldi	r22, 0x02	; 2
    19ae:	8e e6       	ldi	r24, 0x6E	; 110
    19b0:	90 e0       	ldi	r25, 0x00	; 0
    19b2:	0e 94 b0 0e 	call	0x1d60	; 0x1d60 <convertServo2>
					break;
    19b6:	59 c0       	rjmp	.+178    	; 0x1a6a <__stack+0x116b>
					
					case 'C':
					convertServo2(120, channel2B);
    19b8:	62 e0       	ldi	r22, 0x02	; 2
    19ba:	88 e7       	ldi	r24, 0x78	; 120
    19bc:	90 e0       	ldi	r25, 0x00	; 0
    19be:	0e 94 b0 0e 	call	0x1d60	; 0x1d60 <convertServo2>
					break;
    19c2:	53 c0       	rjmp	.+166    	; 0x1a6a <__stack+0x116b>
					
					case 'D':
					convertServo2(130, channel2B);
    19c4:	62 e0       	ldi	r22, 0x02	; 2
    19c6:	82 e8       	ldi	r24, 0x82	; 130
    19c8:	90 e0       	ldi	r25, 0x00	; 0
    19ca:	0e 94 b0 0e 	call	0x1d60	; 0x1d60 <convertServo2>
					break;
    19ce:	4d c0       	rjmp	.+154    	; 0x1a6a <__stack+0x116b>
					
					case 'e':
					convertServo2(140, channel2B);
    19d0:	62 e0       	ldi	r22, 0x02	; 2
    19d2:	8c e8       	ldi	r24, 0x8C	; 140
    19d4:	90 e0       	ldi	r25, 0x00	; 0
    19d6:	0e 94 b0 0e 	call	0x1d60	; 0x1d60 <convertServo2>
					break;
    19da:	47 c0       	rjmp	.+142    	; 0x1a6a <__stack+0x116b>
					
					case 'F':
					convertServo2(150, channel2B);
    19dc:	62 e0       	ldi	r22, 0x02	; 2
    19de:	86 e9       	ldi	r24, 0x96	; 150
    19e0:	90 e0       	ldi	r25, 0x00	; 0
    19e2:	0e 94 b0 0e 	call	0x1d60	; 0x1d60 <convertServo2>
					break;
    19e6:	41 c0       	rjmp	.+130    	; 0x1a6a <__stack+0x116b>
					
					case 'G':
					convertServo2(160, channel2B);
    19e8:	62 e0       	ldi	r22, 0x02	; 2
    19ea:	80 ea       	ldi	r24, 0xA0	; 160
    19ec:	90 e0       	ldi	r25, 0x00	; 0
    19ee:	0e 94 b0 0e 	call	0x1d60	; 0x1d60 <convertServo2>
					break;
    19f2:	3b c0       	rjmp	.+118    	; 0x1a6a <__stack+0x116b>
					
					case 'H':
					convertServo2(170, channel2B);
    19f4:	62 e0       	ldi	r22, 0x02	; 2
    19f6:	8a ea       	ldi	r24, 0xAA	; 170
    19f8:	90 e0       	ldi	r25, 0x00	; 0
    19fa:	0e 94 b0 0e 	call	0x1d60	; 0x1d60 <convertServo2>
					break;
    19fe:	35 c0       	rjmp	.+106    	; 0x1a6a <__stack+0x116b>
					
					case 'I':
					convertServo2(180, channel2B);
    1a00:	62 e0       	ldi	r22, 0x02	; 2
    1a02:	84 eb       	ldi	r24, 0xB4	; 180
    1a04:	90 e0       	ldi	r25, 0x00	; 0
    1a06:	0e 94 b0 0e 	call	0x1d60	; 0x1d60 <convertServo2>
					break;
    1a0a:	2f c0       	rjmp	.+94     	; 0x1a6a <__stack+0x116b>
					
					case 'J':
					convertServo2(190, channel2B);
    1a0c:	62 e0       	ldi	r22, 0x02	; 2
    1a0e:	8e eb       	ldi	r24, 0xBE	; 190
    1a10:	90 e0       	ldi	r25, 0x00	; 0
    1a12:	0e 94 b0 0e 	call	0x1d60	; 0x1d60 <convertServo2>
					break;
    1a16:	29 c0       	rjmp	.+82     	; 0x1a6a <__stack+0x116b>
					
					case 'K':
					convertServo2(200, channel2B);
    1a18:	62 e0       	ldi	r22, 0x02	; 2
    1a1a:	88 ec       	ldi	r24, 0xC8	; 200
    1a1c:	90 e0       	ldi	r25, 0x00	; 0
    1a1e:	0e 94 b0 0e 	call	0x1d60	; 0x1d60 <convertServo2>
					break;
    1a22:	23 c0       	rjmp	.+70     	; 0x1a6a <__stack+0x116b>
					
					case 'L':
					convertServo2(210, channel2B);
    1a24:	62 e0       	ldi	r22, 0x02	; 2
    1a26:	82 ed       	ldi	r24, 0xD2	; 210
    1a28:	90 e0       	ldi	r25, 0x00	; 0
    1a2a:	0e 94 b0 0e 	call	0x1d60	; 0x1d60 <convertServo2>
					break;
    1a2e:	1d c0       	rjmp	.+58     	; 0x1a6a <__stack+0x116b>
					
					case 'M':
					convertServo2(220, channel2B);
    1a30:	62 e0       	ldi	r22, 0x02	; 2
    1a32:	8c ed       	ldi	r24, 0xDC	; 220
    1a34:	90 e0       	ldi	r25, 0x00	; 0
    1a36:	0e 94 b0 0e 	call	0x1d60	; 0x1d60 <convertServo2>
					break;
    1a3a:	17 c0       	rjmp	.+46     	; 0x1a6a <__stack+0x116b>
					
					case 'N':
					convertServo2(230, channel2B);
    1a3c:	62 e0       	ldi	r22, 0x02	; 2
    1a3e:	86 ee       	ldi	r24, 0xE6	; 230
    1a40:	90 e0       	ldi	r25, 0x00	; 0
    1a42:	0e 94 b0 0e 	call	0x1d60	; 0x1d60 <convertServo2>
					break;
    1a46:	11 c0       	rjmp	.+34     	; 0x1a6a <__stack+0x116b>
					
					case 'O':
					convertServo2(240, channel2B);
    1a48:	62 e0       	ldi	r22, 0x02	; 2
    1a4a:	80 ef       	ldi	r24, 0xF0	; 240
    1a4c:	90 e0       	ldi	r25, 0x00	; 0
    1a4e:	0e 94 b0 0e 	call	0x1d60	; 0x1d60 <convertServo2>
					break;
    1a52:	0b c0       	rjmp	.+22     	; 0x1a6a <__stack+0x116b>
					
					case 'P':
					convertServo2(250, channel2B);
    1a54:	62 e0       	ldi	r22, 0x02	; 2
    1a56:	8a ef       	ldi	r24, 0xFA	; 250
    1a58:	90 e0       	ldi	r25, 0x00	; 0
    1a5a:	0e 94 b0 0e 	call	0x1d60	; 0x1d60 <convertServo2>
					break;
    1a5e:	05 c0       	rjmp	.+10     	; 0x1a6a <__stack+0x116b>
					
					case 'q':
					convertServo2(255, channel2B);
    1a60:	62 e0       	ldi	r22, 0x02	; 2
    1a62:	8f ef       	ldi	r24, 0xFF	; 255
    1a64:	90 e0       	ldi	r25, 0x00	; 0
    1a66:	0e 94 b0 0e 	call	0x1d60	; 0x1d60 <convertServo2>
					break;
					
				}
			}
			 
			receivedChar = 0;
    1a6a:	10 92 02 01 	sts	0x0102, r1	; 0x800102 <__data_end>
	
		break;
		}
	
	
	if (activa2 == 0){
    1a6e:	80 91 1f 01 	lds	r24, 0x011F	; 0x80011f <activa2>
    1a72:	90 91 20 01 	lds	r25, 0x0120	; 0x800120 <activa2+0x1>
    1a76:	89 2b       	or	r24, r25
    1a78:	29 f4       	brne	.+10     	; 0x1a84 <__stack+0x1185>
		ADCSRA |= (1 << ADSC);   //Leer puerto de ADC
    1a7a:	ea e7       	ldi	r30, 0x7A	; 122
    1a7c:	f0 e0       	ldi	r31, 0x00	; 0
    1a7e:	80 81       	ld	r24, Z
    1a80:	80 64       	ori	r24, 0x40	; 64
    1a82:	80 83       	st	Z, r24
    1a84:	8f e5       	ldi	r24, 0x5F	; 95
    1a86:	9a ee       	ldi	r25, 0xEA	; 234
    1a88:	01 97       	sbiw	r24, 0x01	; 1
    1a8a:	f1 f7       	brne	.-4      	; 0x1a88 <__stack+0x1189>
    1a8c:	00 c0       	rjmp	.+0      	; 0x1a8e <__stack+0x118f>
    1a8e:	00 00       	nop
    1a90:	0c 94 b9 01 	jmp	0x372	; 0x372 <main+0x4>

00001a94 <__vector_21>:
		
	}
}


ISR (ADC_vect){
    1a94:	1f 92       	push	r1
    1a96:	0f 92       	push	r0
    1a98:	0f b6       	in	r0, 0x3f	; 63
    1a9a:	0f 92       	push	r0
    1a9c:	11 24       	eor	r1, r1
    1a9e:	2f 93       	push	r18
    1aa0:	3f 93       	push	r19
    1aa2:	4f 93       	push	r20
    1aa4:	5f 93       	push	r21
    1aa6:	6f 93       	push	r22
    1aa8:	7f 93       	push	r23
    1aaa:	8f 93       	push	r24
    1aac:	9f 93       	push	r25
    1aae:	af 93       	push	r26
    1ab0:	bf 93       	push	r27
    1ab2:	cf 93       	push	r28
    1ab4:	df 93       	push	r29
    1ab6:	ef 93       	push	r30
    1ab8:	ff 93       	push	r31
	
	if (activa2 == 0){
    1aba:	80 91 1f 01 	lds	r24, 0x011F	; 0x80011f <activa2>
    1abe:	90 91 20 01 	lds	r25, 0x0120	; 0x800120 <activa2+0x1>
    1ac2:	89 2b       	or	r24, r25
    1ac4:	09 f0       	breq	.+2      	; 0x1ac8 <__vector_21+0x34>
    1ac6:	7c c0       	rjmp	.+248    	; 0x1bc0 <__vector_21+0x12c>
		switch (caso){
    1ac8:	80 91 23 01 	lds	r24, 0x0123	; 0x800123 <caso>
    1acc:	90 91 24 01 	lds	r25, 0x0124	; 0x800124 <caso+0x1>
    1ad0:	81 30       	cpi	r24, 0x01	; 1
    1ad2:	91 05       	cpc	r25, r1
    1ad4:	21 f1       	breq	.+72     	; 0x1b1e <__vector_21+0x8a>
    1ad6:	1c f4       	brge	.+6      	; 0x1ade <__vector_21+0x4a>
    1ad8:	89 2b       	or	r24, r25
    1ada:	41 f0       	breq	.+16     	; 0x1aec <__vector_21+0x58>
    1adc:	71 c0       	rjmp	.+226    	; 0x1bc0 <__vector_21+0x12c>
    1ade:	82 30       	cpi	r24, 0x02	; 2
    1ae0:	91 05       	cpc	r25, r1
    1ae2:	c9 f1       	breq	.+114    	; 0x1b56 <__vector_21+0xc2>
    1ae4:	03 97       	sbiw	r24, 0x03	; 3
    1ae6:	09 f4       	brne	.+2      	; 0x1aea <__vector_21+0x56>
    1ae8:	52 c0       	rjmp	.+164    	; 0x1b8e <__vector_21+0xfa>
    1aea:	6a c0       	rjmp	.+212    	; 0x1bc0 <__vector_21+0x12c>
			case 0:
				ADMUX &= ~((1<<MUX2)|(1<<MUX1)|(1<<MUX0));   //Borrar configuracion actual y poner ADC0
    1aec:	ec e7       	ldi	r30, 0x7C	; 124
    1aee:	f0 e0       	ldi	r31, 0x00	; 0
    1af0:	80 81       	ld	r24, Z
    1af2:	88 7f       	andi	r24, 0xF8	; 248
    1af4:	80 83       	st	Z, r24
				caso = 1;
    1af6:	81 e0       	ldi	r24, 0x01	; 1
    1af8:	90 e0       	ldi	r25, 0x00	; 0
    1afa:	90 93 24 01 	sts	0x0124, r25	; 0x800124 <caso+0x1>
    1afe:	80 93 23 01 	sts	0x0123, r24	; 0x800123 <caso>
				convertServo(ADCH, channelB);   //enviar seal a canal B de timer1
    1b02:	c9 e7       	ldi	r28, 0x79	; 121
    1b04:	d0 e0       	ldi	r29, 0x00	; 0
    1b06:	88 81       	ld	r24, Y
    1b08:	62 e0       	ldi	r22, 0x02	; 2
    1b0a:	90 e0       	ldi	r25, 0x00	; 0
    1b0c:	0e 94 67 0e 	call	0x1cce	; 0x1cce <convertServo>
				codo = ADCH;
    1b10:	88 81       	ld	r24, Y
    1b12:	90 e0       	ldi	r25, 0x00	; 0
    1b14:	90 93 0c 01 	sts	0x010C, r25	; 0x80010c <codo+0x1>
    1b18:	80 93 0b 01 	sts	0x010B, r24	; 0x80010b <codo>
				break;
    1b1c:	51 c0       	rjmp	.+162    	; 0x1bc0 <__vector_21+0x12c>
				
			case 1:
				ADMUX &= ~((1<<MUX2)|(1<<MUX1)|(1<<MUX0));   //Borrar configuracion actual y poner ADC1
    1b1e:	ec e7       	ldi	r30, 0x7C	; 124
    1b20:	f0 e0       	ldi	r31, 0x00	; 0
    1b22:	80 81       	ld	r24, Z
    1b24:	88 7f       	andi	r24, 0xF8	; 248
    1b26:	80 83       	st	Z, r24
				ADMUX |= (1<<MUX0);
    1b28:	80 81       	ld	r24, Z
    1b2a:	81 60       	ori	r24, 0x01	; 1
    1b2c:	80 83       	st	Z, r24
				caso = 2; 
    1b2e:	82 e0       	ldi	r24, 0x02	; 2
    1b30:	90 e0       	ldi	r25, 0x00	; 0
    1b32:	90 93 24 01 	sts	0x0124, r25	; 0x800124 <caso+0x1>
    1b36:	80 93 23 01 	sts	0x0123, r24	; 0x800123 <caso>
				convertServo(ADCH, channelA);       //enviar seal a canal A de timer1
    1b3a:	c9 e7       	ldi	r28, 0x79	; 121
    1b3c:	d0 e0       	ldi	r29, 0x00	; 0
    1b3e:	88 81       	ld	r24, Y
    1b40:	61 e0       	ldi	r22, 0x01	; 1
    1b42:	90 e0       	ldi	r25, 0x00	; 0
    1b44:	0e 94 67 0e 	call	0x1cce	; 0x1cce <convertServo>
				brazo = ADCH;
    1b48:	88 81       	ld	r24, Y
    1b4a:	90 e0       	ldi	r25, 0x00	; 0
    1b4c:	90 93 10 01 	sts	0x0110, r25	; 0x800110 <brazo+0x1>
    1b50:	80 93 0f 01 	sts	0x010F, r24	; 0x80010f <brazo>
				break;
    1b54:	35 c0       	rjmp	.+106    	; 0x1bc0 <__vector_21+0x12c>
			
			case 2:
				ADMUX &= ~((1<<MUX0)|(1<<MUX1)|(1<<MUX2));
    1b56:	ec e7       	ldi	r30, 0x7C	; 124
    1b58:	f0 e0       	ldi	r31, 0x00	; 0
    1b5a:	80 81       	ld	r24, Z
    1b5c:	88 7f       	andi	r24, 0xF8	; 248
    1b5e:	80 83       	st	Z, r24
				ADMUX|=(1<<MUX1);
    1b60:	80 81       	ld	r24, Z
    1b62:	82 60       	ori	r24, 0x02	; 2
    1b64:	80 83       	st	Z, r24
				caso = 3; 
    1b66:	83 e0       	ldi	r24, 0x03	; 3
    1b68:	90 e0       	ldi	r25, 0x00	; 0
    1b6a:	90 93 24 01 	sts	0x0124, r25	; 0x800124 <caso+0x1>
    1b6e:	80 93 23 01 	sts	0x0123, r24	; 0x800123 <caso>
				convertServo2(ADCH, channel2A);
    1b72:	c9 e7       	ldi	r28, 0x79	; 121
    1b74:	d0 e0       	ldi	r29, 0x00	; 0
    1b76:	88 81       	ld	r24, Y
    1b78:	61 e0       	ldi	r22, 0x01	; 1
    1b7a:	90 e0       	ldi	r25, 0x00	; 0
    1b7c:	0e 94 b0 0e 	call	0x1d60	; 0x1d60 <convertServo2>
				garra = ADCH;
    1b80:	88 81       	ld	r24, Y
    1b82:	90 e0       	ldi	r25, 0x00	; 0
    1b84:	90 93 14 01 	sts	0x0114, r25	; 0x800114 <garra+0x1>
    1b88:	80 93 13 01 	sts	0x0113, r24	; 0x800113 <garra>
				break;
    1b8c:	19 c0       	rjmp	.+50     	; 0x1bc0 <__vector_21+0x12c>
			
			case 3:
				ADMUX &= ~((1<<MUX0)|(1<<MUX1)|(1<<MUX2));
    1b8e:	ec e7       	ldi	r30, 0x7C	; 124
    1b90:	f0 e0       	ldi	r31, 0x00	; 0
    1b92:	80 81       	ld	r24, Z
    1b94:	88 7f       	andi	r24, 0xF8	; 248
    1b96:	80 83       	st	Z, r24
				ADMUX|=(1<<MUX0)|(1<<MUX1);
    1b98:	80 81       	ld	r24, Z
    1b9a:	83 60       	ori	r24, 0x03	; 3
    1b9c:	80 83       	st	Z, r24
				caso = 0;
    1b9e:	10 92 24 01 	sts	0x0124, r1	; 0x800124 <caso+0x1>
    1ba2:	10 92 23 01 	sts	0x0123, r1	; 0x800123 <caso>
				convertServo2(ADCH, channel2B);
    1ba6:	c9 e7       	ldi	r28, 0x79	; 121
    1ba8:	d0 e0       	ldi	r29, 0x00	; 0
    1baa:	88 81       	ld	r24, Y
    1bac:	62 e0       	ldi	r22, 0x02	; 2
    1bae:	90 e0       	ldi	r25, 0x00	; 0
    1bb0:	0e 94 b0 0e 	call	0x1d60	; 0x1d60 <convertServo2>
				rota = ADCH;
    1bb4:	88 81       	ld	r24, Y
    1bb6:	90 e0       	ldi	r25, 0x00	; 0
    1bb8:	90 93 08 01 	sts	0x0108, r25	; 0x800108 <rota+0x1>
    1bbc:	80 93 07 01 	sts	0x0107, r24	; 0x800107 <rota>
				break;
		
		}
	
	}
	ADCSRA |= (1 << ADIF);	//Apagar bandera de interrupcion
    1bc0:	ea e7       	ldi	r30, 0x7A	; 122
    1bc2:	f0 e0       	ldi	r31, 0x00	; 0
    1bc4:	80 81       	ld	r24, Z
    1bc6:	80 61       	ori	r24, 0x10	; 16
    1bc8:	80 83       	st	Z, r24
}
    1bca:	ff 91       	pop	r31
    1bcc:	ef 91       	pop	r30
    1bce:	df 91       	pop	r29
    1bd0:	cf 91       	pop	r28
    1bd2:	bf 91       	pop	r27
    1bd4:	af 91       	pop	r26
    1bd6:	9f 91       	pop	r25
    1bd8:	8f 91       	pop	r24
    1bda:	7f 91       	pop	r23
    1bdc:	6f 91       	pop	r22
    1bde:	5f 91       	pop	r21
    1be0:	4f 91       	pop	r20
    1be2:	3f 91       	pop	r19
    1be4:	2f 91       	pop	r18
    1be6:	0f 90       	pop	r0
    1be8:	0f be       	out	0x3f, r0	; 63
    1bea:	0f 90       	pop	r0
    1bec:	1f 90       	pop	r1
    1bee:	18 95       	reti

00001bf0 <__vector_18>:


ISR(USART_RX_vect)
{
    1bf0:	1f 92       	push	r1
    1bf2:	0f 92       	push	r0
    1bf4:	0f b6       	in	r0, 0x3f	; 63
    1bf6:	0f 92       	push	r0
    1bf8:	11 24       	eor	r1, r1
    1bfa:	8f 93       	push	r24
	char temp = UDR0;
    1bfc:	80 91 c6 00 	lds	r24, 0x00C6	; 0x8000c6 <__TEXT_REGION_LENGTH__+0x7f80c6>

	
	if (temp != '\n'){  // Si es diferente que enter 
    1c00:	8a 30       	cpi	r24, 0x0A	; 10
    1c02:	11 f0       	breq	.+4      	; 0x1c08 <__vector_18+0x18>
		receivedChar = temp;  // Almacena el carcter recibido
    1c04:	80 93 02 01 	sts	0x0102, r24	; 0x800102 <__data_end>
	}
	
	while(!(UCSR0A & (1<<UDRE0)));    //Mientras haya caracteres
    1c08:	80 91 c0 00 	lds	r24, 0x00C0	; 0x8000c0 <__TEXT_REGION_LENGTH__+0x7f80c0>
    1c0c:	85 ff       	sbrs	r24, 5
    1c0e:	fc cf       	rjmp	.-8      	; 0x1c08 <__vector_18+0x18>
	
}
    1c10:	8f 91       	pop	r24
    1c12:	0f 90       	pop	r0
    1c14:	0f be       	out	0x3f, r0	; 63
    1c16:	0f 90       	pop	r0
    1c18:	1f 90       	pop	r1
    1c1a:	18 95       	reti

00001c1c <channel>:
uint16_t topVal = 1;
uint16_t i, j;		


void channel(uint8_t setChannel, uint8_t inverted){
	switch(setChannel){
    1c1c:	81 30       	cpi	r24, 0x01	; 1
    1c1e:	19 f0       	breq	.+6      	; 0x1c26 <channel+0xa>
    1c20:	82 30       	cpi	r24, 0x02	; 2
    1c22:	79 f0       	breq	.+30     	; 0x1c42 <channel+0x26>
    1c24:	08 95       	ret
		case 1:
		if(inverted == 1){
    1c26:	61 30       	cpi	r22, 0x01	; 1
    1c28:	31 f4       	brne	.+12     	; 0x1c36 <channel+0x1a>
			TCCR1A |= (1 << COM1A0) | (1 << COM1A1);	//A invertido 
    1c2a:	e0 e8       	ldi	r30, 0x80	; 128
    1c2c:	f0 e0       	ldi	r31, 0x00	; 0
    1c2e:	80 81       	ld	r24, Z
    1c30:	80 6c       	ori	r24, 0xC0	; 192
    1c32:	80 83       	st	Z, r24
    1c34:	08 95       	ret
			}else{
			TCCR1A |= (1 << COM1A1);					//A no invertido 
    1c36:	e0 e8       	ldi	r30, 0x80	; 128
    1c38:	f0 e0       	ldi	r31, 0x00	; 0
    1c3a:	80 81       	ld	r24, Z
    1c3c:	80 68       	ori	r24, 0x80	; 128
    1c3e:	80 83       	st	Z, r24
    1c40:	08 95       	ret
		}
		break;
		
		case 2:
		if(inverted == 1){
    1c42:	61 30       	cpi	r22, 0x01	; 1
    1c44:	31 f4       	brne	.+12     	; 0x1c52 <channel+0x36>
			TCCR1A |= (1 << COM1B0) | (1 << COM1B1);	//B invertido 
    1c46:	e0 e8       	ldi	r30, 0x80	; 128
    1c48:	f0 e0       	ldi	r31, 0x00	; 0
    1c4a:	80 81       	ld	r24, Z
    1c4c:	80 63       	ori	r24, 0x30	; 48
    1c4e:	80 83       	st	Z, r24
    1c50:	08 95       	ret
			}else{
			TCCR1A |= (1 << COM1B1);					//B no invertido 
    1c52:	e0 e8       	ldi	r30, 0x80	; 128
    1c54:	f0 e0       	ldi	r31, 0x00	; 0
    1c56:	80 81       	ld	r24, Z
    1c58:	80 62       	ori	r24, 0x20	; 32
    1c5a:	80 83       	st	Z, r24
    1c5c:	08 95       	ret

00001c5e <initFastPWM1>:
}


void initFastPWM1(uint16_t prescaler){
	//initialize register timer1
	TCCR1A = 0;
    1c5e:	10 92 80 00 	sts	0x0080, r1	; 0x800080 <__TEXT_REGION_LENGTH__+0x7f8080>
	TCCR1B = 0;
    1c62:	10 92 81 00 	sts	0x0081, r1	; 0x800081 <__TEXT_REGION_LENGTH__+0x7f8081>
	
	switch (prescaler)
    1c66:	88 30       	cpi	r24, 0x08	; 8
    1c68:	91 05       	cpc	r25, r1
    1c6a:	21 f0       	breq	.+8      	; 0x1c74 <initFastPWM1+0x16>
    1c6c:	81 15       	cp	r24, r1
    1c6e:	94 40       	sbci	r25, 0x04	; 4
    1c70:	39 f0       	breq	.+14     	; 0x1c80 <initFastPWM1+0x22>
    1c72:	0b c0       	rjmp	.+22     	; 0x1c8a <initFastPWM1+0x2c>
	{
		case 8:
		TCCR1B |= (1 << CS11);					//prescaler 8
    1c74:	e1 e8       	ldi	r30, 0x81	; 129
    1c76:	f0 e0       	ldi	r31, 0x00	; 0
    1c78:	80 81       	ld	r24, Z
    1c7a:	82 60       	ori	r24, 0x02	; 2
    1c7c:	80 83       	st	Z, r24
		break;
    1c7e:	05 c0       	rjmp	.+10     	; 0x1c8a <initFastPWM1+0x2c>
		
		case 1024:
		TCCR1B |= (1 << CS10) | (1 << CS12);	//prescaler 1024
    1c80:	e1 e8       	ldi	r30, 0x81	; 129
    1c82:	f0 e0       	ldi	r31, 0x00	; 0
    1c84:	80 81       	ld	r24, Z
    1c86:	85 60       	ori	r24, 0x05	; 5
    1c88:	80 83       	st	Z, r24
		break;
	}
	
	
		TCCR1A |= (1 << WGM11);
    1c8a:	e0 e8       	ldi	r30, 0x80	; 128
    1c8c:	f0 e0       	ldi	r31, 0x00	; 0
    1c8e:	80 81       	ld	r24, Z
    1c90:	82 60       	ori	r24, 0x02	; 2
    1c92:	80 83       	st	Z, r24
		TCCR1B |= (1 << WGM12) | (1 << WGM13);
    1c94:	e1 e8       	ldi	r30, 0x81	; 129
    1c96:	f0 e0       	ldi	r31, 0x00	; 0
    1c98:	80 81       	ld	r24, Z
    1c9a:	88 61       	ori	r24, 0x18	; 24
    1c9c:	80 83       	st	Z, r24
		topVal = 1;		
    1c9e:	81 e0       	ldi	r24, 0x01	; 1
    1ca0:	90 e0       	ldi	r25, 0x00	; 0
    1ca2:	90 93 01 01 	sts	0x0101, r25	; 0x800101 <__DATA_REGION_ORIGIN__+0x1>
    1ca6:	80 93 00 01 	sts	0x0100, r24	; 0x800100 <__DATA_REGION_ORIGIN__>
    1caa:	08 95       	ret

00001cac <topValue>:
	
}


void topValue(uint16_t top){
	if (topVal == 1)	{
    1cac:	20 91 00 01 	lds	r18, 0x0100	; 0x800100 <__DATA_REGION_ORIGIN__>
    1cb0:	30 91 01 01 	lds	r19, 0x0101	; 0x800101 <__DATA_REGION_ORIGIN__+0x1>
    1cb4:	21 30       	cpi	r18, 0x01	; 1
    1cb6:	31 05       	cpc	r19, r1
    1cb8:	29 f4       	brne	.+10     	; 0x1cc4 <topValue+0x18>
		ICR1 = top;		//Poner el valor maximo de llegada en ICR1
    1cba:	90 93 87 00 	sts	0x0087, r25	; 0x800087 <__TEXT_REGION_LENGTH__+0x7f8087>
    1cbe:	80 93 86 00 	sts	0x0086, r24	; 0x800086 <__TEXT_REGION_LENGTH__+0x7f8086>
    1cc2:	08 95       	ret
		}
		else{
		topVal = 0;
    1cc4:	10 92 01 01 	sts	0x0101, r1	; 0x800101 <__DATA_REGION_ORIGIN__+0x1>
    1cc8:	10 92 00 01 	sts	0x0100, r1	; 0x800100 <__DATA_REGION_ORIGIN__>
    1ccc:	08 95       	ret

00001cce <convertServo>:
}


void convertServo(uint16_t analogIn, uint8_t selChannel){   //Conversion para servos
	
	switch(selChannel){
    1cce:	61 30       	cpi	r22, 0x01	; 1
    1cd0:	19 f0       	breq	.+6      	; 0x1cd8 <convertServo+0xa>
    1cd2:	62 30       	cpi	r22, 0x02	; 2
    1cd4:	b1 f0       	breq	.+44     	; 0x1d02 <convertServo+0x34>
    1cd6:	08 95       	ret
		case 1:
			i = analogIn;
    1cd8:	90 93 28 01 	sts	0x0128, r25	; 0x800128 <i+0x1>
    1cdc:	80 93 27 01 	sts	0x0127, r24	; 0x800127 <i>
			j = (200/12)*i+1000;
    1ce0:	82 95       	swap	r24
    1ce2:	92 95       	swap	r25
    1ce4:	90 7f       	andi	r25, 0xF0	; 240
    1ce6:	98 27       	eor	r25, r24
    1ce8:	80 7f       	andi	r24, 0xF0	; 240
    1cea:	98 27       	eor	r25, r24
    1cec:	88 51       	subi	r24, 0x18	; 24
    1cee:	9c 4f       	sbci	r25, 0xFC	; 252
    1cf0:	90 93 26 01 	sts	0x0126, r25	; 0x800126 <j+0x1>
    1cf4:	80 93 25 01 	sts	0x0125, r24	; 0x800125 <j>
			OCR1A = j;
    1cf8:	90 93 89 00 	sts	0x0089, r25	; 0x800089 <__TEXT_REGION_LENGTH__+0x7f8089>
    1cfc:	80 93 88 00 	sts	0x0088, r24	; 0x800088 <__TEXT_REGION_LENGTH__+0x7f8088>
			break;
    1d00:	08 95       	ret
		
		case 2:
			i = analogIn;
    1d02:	90 93 28 01 	sts	0x0128, r25	; 0x800128 <i+0x1>
    1d06:	80 93 27 01 	sts	0x0127, r24	; 0x800127 <i>
			j = (200/12)*i+1000;
    1d0a:	82 95       	swap	r24
    1d0c:	92 95       	swap	r25
    1d0e:	90 7f       	andi	r25, 0xF0	; 240
    1d10:	98 27       	eor	r25, r24
    1d12:	80 7f       	andi	r24, 0xF0	; 240
    1d14:	98 27       	eor	r25, r24
    1d16:	88 51       	subi	r24, 0x18	; 24
    1d18:	9c 4f       	sbci	r25, 0xFC	; 252
    1d1a:	90 93 26 01 	sts	0x0126, r25	; 0x800126 <j+0x1>
    1d1e:	80 93 25 01 	sts	0x0125, r24	; 0x800125 <j>
			OCR1B = j;
    1d22:	90 93 8b 00 	sts	0x008B, r25	; 0x80008b <__TEXT_REGION_LENGTH__+0x7f808b>
    1d26:	80 93 8a 00 	sts	0x008A, r24	; 0x80008a <__TEXT_REGION_LENGTH__+0x7f808a>
    1d2a:	08 95       	ret

00001d2c <initFastPWM2>:

int P, a;
uint8_t suma = 0;

void initFastPWM2(){
	 TCCR2A = 0;
    1d2c:	e0 eb       	ldi	r30, 0xB0	; 176
    1d2e:	f0 e0       	ldi	r31, 0x00	; 0
    1d30:	10 82       	st	Z, r1
	 TCCR2B = 0;
    1d32:	a1 eb       	ldi	r26, 0xB1	; 177
    1d34:	b0 e0       	ldi	r27, 0x00	; 0
    1d36:	1c 92       	st	X, r1
	 
	 TCCR2A |= (1<<COM2A1);	//  OC2A NO INVERTIDO
    1d38:	80 81       	ld	r24, Z
    1d3a:	80 68       	ori	r24, 0x80	; 128
    1d3c:	80 83       	st	Z, r24
	 TCCR2A |= (1<<COM2B1);	//  OC2A NO INVERTIDO
    1d3e:	80 81       	ld	r24, Z
    1d40:	80 62       	ori	r24, 0x20	; 32
    1d42:	80 83       	st	Z, r24
	 
	 TCCR2A |= (1<<WGM21)|(1<<WGM20)|(1<<WGM22);	//Fast mode
    1d44:	80 81       	ld	r24, Z
    1d46:	8b 60       	ori	r24, 0x0B	; 11
    1d48:	80 83       	st	Z, r24
	 TCCR2B &= ~(1<<WGM22);
    1d4a:	8c 91       	ld	r24, X
    1d4c:	87 7f       	andi	r24, 0xF7	; 247
    1d4e:	8c 93       	st	X, r24
	 
	 TCCR2B |= (1<<CS22)|(1<<CS21)|(1<<CS20);//Prescaler 1024
    1d50:	8c 91       	ld	r24, X
    1d52:	87 60       	ori	r24, 0x07	; 7
    1d54:	8c 93       	st	X, r24
	 OCR2A = 7;
    1d56:	87 e0       	ldi	r24, 0x07	; 7
    1d58:	80 93 b3 00 	sts	0x00B3, r24	; 0x8000b3 <__TEXT_REGION_LENGTH__+0x7f80b3>
	 OCR0B = 0;
    1d5c:	18 bc       	out	0x28, r1	; 40
    1d5e:	08 95       	ret

00001d60 <convertServo2>:
}


void convertServo2(uint16_t analogIn2, uint8_t selChannel2){   //Conversion para servos
	
	switch(selChannel2){
    1d60:	61 30       	cpi	r22, 0x01	; 1
    1d62:	19 f0       	breq	.+6      	; 0x1d6a <convertServo2+0xa>
    1d64:	62 30       	cpi	r22, 0x02	; 2
    1d66:	c9 f0       	breq	.+50     	; 0x1d9a <convertServo2+0x3a>
    1d68:	08 95       	ret
		case 1:
		P = analogIn2;
    1d6a:	90 93 2c 01 	sts	0x012C, r25	; 0x80012c <P+0x1>
    1d6e:	80 93 2b 01 	sts	0x012B, r24	; 0x80012b <P>
			
		a = (((P)*(28-7))/(255))+7;     //Recreando la funcion de arduino de map(ADCH,0,255,7,38)
    1d72:	45 e1       	ldi	r20, 0x15	; 21
    1d74:	48 9f       	mul	r20, r24
    1d76:	90 01       	movw	r18, r0
    1d78:	49 9f       	mul	r20, r25
    1d7a:	30 0d       	add	r19, r0
    1d7c:	11 24       	eor	r1, r1
    1d7e:	c9 01       	movw	r24, r18
    1d80:	6f ef       	ldi	r22, 0xFF	; 255
    1d82:	70 e0       	ldi	r23, 0x00	; 0
    1d84:	0e 94 00 0f 	call	0x1e00	; 0x1e00 <__divmodhi4>
    1d88:	69 5f       	subi	r22, 0xF9	; 249
    1d8a:	7f 4f       	sbci	r23, 0xFF	; 255
    1d8c:	70 93 2a 01 	sts	0x012A, r23	; 0x80012a <a+0x1>
    1d90:	60 93 29 01 	sts	0x0129, r22	; 0x800129 <a>
		OCR2A = a;
    1d94:	60 93 b3 00 	sts	0x00B3, r22	; 0x8000b3 <__TEXT_REGION_LENGTH__+0x7f80b3>
		
		break;
    1d98:	08 95       	ret
		
		case 2:
		P = analogIn2;
    1d9a:	90 93 2c 01 	sts	0x012C, r25	; 0x80012c <P+0x1>
    1d9e:	80 93 2b 01 	sts	0x012B, r24	; 0x80012b <P>
	    a = (((P)*(38-7))/(255))+7; 
    1da2:	4f e1       	ldi	r20, 0x1F	; 31
    1da4:	48 9f       	mul	r20, r24
    1da6:	90 01       	movw	r18, r0
    1da8:	49 9f       	mul	r20, r25
    1daa:	30 0d       	add	r19, r0
    1dac:	11 24       	eor	r1, r1
    1dae:	c9 01       	movw	r24, r18
    1db0:	6f ef       	ldi	r22, 0xFF	; 255
    1db2:	70 e0       	ldi	r23, 0x00	; 0
    1db4:	0e 94 00 0f 	call	0x1e00	; 0x1e00 <__divmodhi4>
    1db8:	69 5f       	subi	r22, 0xF9	; 249
    1dba:	7f 4f       	sbci	r23, 0xFF	; 255
    1dbc:	70 93 2a 01 	sts	0x012A, r23	; 0x80012a <a+0x1>
    1dc0:	60 93 29 01 	sts	0x0129, r22	; 0x800129 <a>
		OCR2B = a;
    1dc4:	60 93 b4 00 	sts	0x00B4, r22	; 0x8000b4 <__TEXT_REGION_LENGTH__+0x7f80b4>
    1dc8:	08 95       	ret

00001dca <initUART9600>:
#include "UART.h"

void initUART9600()
{
	//Paso 1: RX y TX como salida
	DDRD &= ~(1<<DDD0);
    1dca:	8a b1       	in	r24, 0x0a	; 10
    1dcc:	8e 7f       	andi	r24, 0xFE	; 254
    1dce:	8a b9       	out	0x0a, r24	; 10
	DDRD |= (1<<DDD1);
    1dd0:	8a b1       	in	r24, 0x0a	; 10
    1dd2:	82 60       	ori	r24, 0x02	; 2
    1dd4:	8a b9       	out	0x0a, r24	; 10
	
	//Paso 2:Configurar UCSR0A
	UCSR0A = 0;
    1dd6:	10 92 c0 00 	sts	0x00C0, r1	; 0x8000c0 <__TEXT_REGION_LENGTH__+0x7f80c0>
	
	//Paso 3: configurar UCSR0B donde se habilita ISR de recepcion y se habilita RX y TX
	UCSR0B = 0;
    1dda:	e1 ec       	ldi	r30, 0xC1	; 193
    1ddc:	f0 e0       	ldi	r31, 0x00	; 0
    1dde:	10 82       	st	Z, r1
	UCSR0B |= (1<<RXCIE0) | (1<<RXEN0) | (1<<TXEN0);
    1de0:	80 81       	ld	r24, Z
    1de2:	88 69       	ori	r24, 0x98	; 152
    1de4:	80 83       	st	Z, r24
	
	//Paso 4: Configurar UCSR0C, asincrono, paridad: none, 1 bit stop, data bits de 8 bits
	UCSR0C = 0;
    1de6:	e2 ec       	ldi	r30, 0xC2	; 194
    1de8:	f0 e0       	ldi	r31, 0x00	; 0
    1dea:	10 82       	st	Z, r1
	UCSR0C |= (1<<UCSZ01) | (1<<UCSZ00);
    1dec:	80 81       	ld	r24, Z
    1dee:	86 60       	ori	r24, 0x06	; 6
    1df0:	80 83       	st	Z, r24
	
	//Paso 5: Configurar velocidad de baudrate a 9600
	UBRR0 = 103;
    1df2:	87 e6       	ldi	r24, 0x67	; 103
    1df4:	90 e0       	ldi	r25, 0x00	; 0
    1df6:	90 93 c5 00 	sts	0x00C5, r25	; 0x8000c5 <__TEXT_REGION_LENGTH__+0x7f80c5>
    1dfa:	80 93 c4 00 	sts	0x00C4, r24	; 0x8000c4 <__TEXT_REGION_LENGTH__+0x7f80c4>
    1dfe:	08 95       	ret

00001e00 <__divmodhi4>:
    1e00:	97 fb       	bst	r25, 7
    1e02:	07 2e       	mov	r0, r23
    1e04:	16 f4       	brtc	.+4      	; 0x1e0a <__divmodhi4+0xa>
    1e06:	00 94       	com	r0
    1e08:	07 d0       	rcall	.+14     	; 0x1e18 <__divmodhi4_neg1>
    1e0a:	77 fd       	sbrc	r23, 7
    1e0c:	09 d0       	rcall	.+18     	; 0x1e20 <__divmodhi4_neg2>
    1e0e:	0e 94 1a 0f 	call	0x1e34	; 0x1e34 <__udivmodhi4>
    1e12:	07 fc       	sbrc	r0, 7
    1e14:	05 d0       	rcall	.+10     	; 0x1e20 <__divmodhi4_neg2>
    1e16:	3e f4       	brtc	.+14     	; 0x1e26 <__divmodhi4_exit>

00001e18 <__divmodhi4_neg1>:
    1e18:	90 95       	com	r25
    1e1a:	81 95       	neg	r24
    1e1c:	9f 4f       	sbci	r25, 0xFF	; 255
    1e1e:	08 95       	ret

00001e20 <__divmodhi4_neg2>:
    1e20:	70 95       	com	r23
    1e22:	61 95       	neg	r22
    1e24:	7f 4f       	sbci	r23, 0xFF	; 255

00001e26 <__divmodhi4_exit>:
    1e26:	08 95       	ret

00001e28 <__tablejump2__>:
    1e28:	ee 0f       	add	r30, r30
    1e2a:	ff 1f       	adc	r31, r31
    1e2c:	05 90       	lpm	r0, Z+
    1e2e:	f4 91       	lpm	r31, Z
    1e30:	e0 2d       	mov	r30, r0
    1e32:	09 94       	ijmp

00001e34 <__udivmodhi4>:
    1e34:	aa 1b       	sub	r26, r26
    1e36:	bb 1b       	sub	r27, r27
    1e38:	51 e1       	ldi	r21, 0x11	; 17
    1e3a:	07 c0       	rjmp	.+14     	; 0x1e4a <__udivmodhi4_ep>

00001e3c <__udivmodhi4_loop>:
    1e3c:	aa 1f       	adc	r26, r26
    1e3e:	bb 1f       	adc	r27, r27
    1e40:	a6 17       	cp	r26, r22
    1e42:	b7 07       	cpc	r27, r23
    1e44:	10 f0       	brcs	.+4      	; 0x1e4a <__udivmodhi4_ep>
    1e46:	a6 1b       	sub	r26, r22
    1e48:	b7 0b       	sbc	r27, r23

00001e4a <__udivmodhi4_ep>:
    1e4a:	88 1f       	adc	r24, r24
    1e4c:	99 1f       	adc	r25, r25
    1e4e:	5a 95       	dec	r21
    1e50:	a9 f7       	brne	.-22     	; 0x1e3c <__udivmodhi4_loop>
    1e52:	80 95       	com	r24
    1e54:	90 95       	com	r25
    1e56:	bc 01       	movw	r22, r24
    1e58:	cd 01       	movw	r24, r26
    1e5a:	08 95       	ret

00001e5c <_exit>:
    1e5c:	f8 94       	cli

00001e5e <__stop_program>:
    1e5e:	ff cf       	rjmp	.-2      	; 0x1e5e <__stop_program>
